
app.elf:     file format elf32-littlearm


Disassembly of section .text:

08000000 <vector_table-0x8000>:
 8000000:	20080000 	andcs	r0, r8, r0
 8000004:	080001f5 	stmdaeq	r0, {r0, r2, r4, r5, r6, r7, r8}
 8000008:	080001f3 	stmdaeq	r0, {r0, r1, r4, r5, r6, r7, r8}
 800000c:	080001f1 	stmdaeq	r0, {r0, r4, r5, r6, r7, r8}
 8000010:	080001f1 	stmdaeq	r0, {r0, r4, r5, r6, r7, r8}
 8000014:	080001f1 	stmdaeq	r0, {r0, r4, r5, r6, r7, r8}
 8000018:	080001f1 	stmdaeq	r0, {r0, r4, r5, r6, r7, r8}
	...
 800002c:	080001f3 	stmdaeq	r0, {r0, r1, r4, r5, r6, r7, r8}
 8000030:	080001f3 	stmdaeq	r0, {r0, r1, r4, r5, r6, r7, r8}
 8000034:	00000000 	andeq	r0, r0, r0
 8000038:	080001f3 	stmdaeq	r0, {r0, r1, r4, r5, r6, r7, r8}
 800003c:	080001f3 	stmdaeq	r0, {r0, r1, r4, r5, r6, r7, r8}
 8000040:	080001f1 	stmdaeq	r0, {r0, r4, r5, r6, r7, r8}
 8000044:	080001f1 	stmdaeq	r0, {r0, r4, r5, r6, r7, r8}
 8000048:	080001f1 	stmdaeq	r0, {r0, r4, r5, r6, r7, r8}
 800004c:	080001f1 	stmdaeq	r0, {r0, r4, r5, r6, r7, r8}
 8000050:	080001f1 	stmdaeq	r0, {r0, r4, r5, r6, r7, r8}
 8000054:	080001f1 	stmdaeq	r0, {r0, r4, r5, r6, r7, r8}
 8000058:	080001f1 	stmdaeq	r0, {r0, r4, r5, r6, r7, r8}
 800005c:	080001f1 	stmdaeq	r0, {r0, r4, r5, r6, r7, r8}
 8000060:	080001f1 	stmdaeq	r0, {r0, r4, r5, r6, r7, r8}
 8000064:	080001f1 	stmdaeq	r0, {r0, r4, r5, r6, r7, r8}
 8000068:	080001f1 	stmdaeq	r0, {r0, r4, r5, r6, r7, r8}
 800006c:	080001f1 	stmdaeq	r0, {r0, r4, r5, r6, r7, r8}
 8000070:	080001f1 	stmdaeq	r0, {r0, r4, r5, r6, r7, r8}
 8000074:	080001f1 	stmdaeq	r0, {r0, r4, r5, r6, r7, r8}
 8000078:	080001f1 	stmdaeq	r0, {r0, r4, r5, r6, r7, r8}
 800007c:	080001f1 	stmdaeq	r0, {r0, r4, r5, r6, r7, r8}
 8000080:	080001f1 	stmdaeq	r0, {r0, r4, r5, r6, r7, r8}
 8000084:	080001f1 	stmdaeq	r0, {r0, r4, r5, r6, r7, r8}
 8000088:	080001f1 	stmdaeq	r0, {r0, r4, r5, r6, r7, r8}
 800008c:	080001f1 	stmdaeq	r0, {r0, r4, r5, r6, r7, r8}
 8000090:	080001f1 	stmdaeq	r0, {r0, r4, r5, r6, r7, r8}
 8000094:	080001f1 	stmdaeq	r0, {r0, r4, r5, r6, r7, r8}
 8000098:	080001f1 	stmdaeq	r0, {r0, r4, r5, r6, r7, r8}
 800009c:	080001f1 	stmdaeq	r0, {r0, r4, r5, r6, r7, r8}
 80000a0:	080001f1 	stmdaeq	r0, {r0, r4, r5, r6, r7, r8}
 80000a4:	080001f1 	stmdaeq	r0, {r0, r4, r5, r6, r7, r8}
 80000a8:	080001f1 	stmdaeq	r0, {r0, r4, r5, r6, r7, r8}
 80000ac:	080001f1 	stmdaeq	r0, {r0, r4, r5, r6, r7, r8}
 80000b0:	080001f1 	stmdaeq	r0, {r0, r4, r5, r6, r7, r8}
 80000b4:	080001f1 	stmdaeq	r0, {r0, r4, r5, r6, r7, r8}
 80000b8:	080001f1 	stmdaeq	r0, {r0, r4, r5, r6, r7, r8}
 80000bc:	080001f1 	stmdaeq	r0, {r0, r4, r5, r6, r7, r8}
 80000c0:	080001f1 	stmdaeq	r0, {r0, r4, r5, r6, r7, r8}
 80000c4:	080001f1 	stmdaeq	r0, {r0, r4, r5, r6, r7, r8}
 80000c8:	080001f1 	stmdaeq	r0, {r0, r4, r5, r6, r7, r8}
 80000cc:	080001f1 	stmdaeq	r0, {r0, r4, r5, r6, r7, r8}
 80000d0:	080001f1 	stmdaeq	r0, {r0, r4, r5, r6, r7, r8}
 80000d4:	080001f1 	stmdaeq	r0, {r0, r4, r5, r6, r7, r8}
 80000d8:	080001f1 	stmdaeq	r0, {r0, r4, r5, r6, r7, r8}
 80000dc:	080001f1 	stmdaeq	r0, {r0, r4, r5, r6, r7, r8}
 80000e0:	080001f1 	stmdaeq	r0, {r0, r4, r5, r6, r7, r8}
 80000e4:	080001f1 	stmdaeq	r0, {r0, r4, r5, r6, r7, r8}
 80000e8:	080001f1 	stmdaeq	r0, {r0, r4, r5, r6, r7, r8}
 80000ec:	080001f1 	stmdaeq	r0, {r0, r4, r5, r6, r7, r8}
 80000f0:	080001f1 	stmdaeq	r0, {r0, r4, r5, r6, r7, r8}
 80000f4:	080001f1 	stmdaeq	r0, {r0, r4, r5, r6, r7, r8}
 80000f8:	080001f1 	stmdaeq	r0, {r0, r4, r5, r6, r7, r8}
 80000fc:	080001f1 	stmdaeq	r0, {r0, r4, r5, r6, r7, r8}
 8000100:	080001f1 	stmdaeq	r0, {r0, r4, r5, r6, r7, r8}
 8000104:	080001f1 	stmdaeq	r0, {r0, r4, r5, r6, r7, r8}
 8000108:	080001f1 	stmdaeq	r0, {r0, r4, r5, r6, r7, r8}
 800010c:	080001f1 	stmdaeq	r0, {r0, r4, r5, r6, r7, r8}
 8000110:	080001f1 	stmdaeq	r0, {r0, r4, r5, r6, r7, r8}
 8000114:	080001f1 	stmdaeq	r0, {r0, r4, r5, r6, r7, r8}
 8000118:	080001f1 	stmdaeq	r0, {r0, r4, r5, r6, r7, r8}
 800011c:	080001f1 	stmdaeq	r0, {r0, r4, r5, r6, r7, r8}
 8000120:	080001f1 	stmdaeq	r0, {r0, r4, r5, r6, r7, r8}
 8000124:	080001f1 	stmdaeq	r0, {r0, r4, r5, r6, r7, r8}
 8000128:	080001f1 	stmdaeq	r0, {r0, r4, r5, r6, r7, r8}
 800012c:	080001f1 	stmdaeq	r0, {r0, r4, r5, r6, r7, r8}
 8000130:	080001f1 	stmdaeq	r0, {r0, r4, r5, r6, r7, r8}
 8000134:	080001f1 	stmdaeq	r0, {r0, r4, r5, r6, r7, r8}
 8000138:	080001f1 	stmdaeq	r0, {r0, r4, r5, r6, r7, r8}
 800013c:	080001f1 	stmdaeq	r0, {r0, r4, r5, r6, r7, r8}
 8000140:	080001f1 	stmdaeq	r0, {r0, r4, r5, r6, r7, r8}
 8000144:	080001f1 	stmdaeq	r0, {r0, r4, r5, r6, r7, r8}
 8000148:	080001f1 	stmdaeq	r0, {r0, r4, r5, r6, r7, r8}
 800014c:	080001f1 	stmdaeq	r0, {r0, r4, r5, r6, r7, r8}
 8000150:	080001f1 	stmdaeq	r0, {r0, r4, r5, r6, r7, r8}
 8000154:	080001f1 	stmdaeq	r0, {r0, r4, r5, r6, r7, r8}
 8000158:	080001f1 	stmdaeq	r0, {r0, r4, r5, r6, r7, r8}
 800015c:	080001f1 	stmdaeq	r0, {r0, r4, r5, r6, r7, r8}
 8000160:	080001f1 	stmdaeq	r0, {r0, r4, r5, r6, r7, r8}
 8000164:	080001f1 	stmdaeq	r0, {r0, r4, r5, r6, r7, r8}
 8000168:	080001f1 	stmdaeq	r0, {r0, r4, r5, r6, r7, r8}
 800016c:	080001f1 	stmdaeq	r0, {r0, r4, r5, r6, r7, r8}
 8000170:	080001f1 	stmdaeq	r0, {r0, r4, r5, r6, r7, r8}
 8000174:	080001f1 	stmdaeq	r0, {r0, r4, r5, r6, r7, r8}
 8000178:	080001f1 	stmdaeq	r0, {r0, r4, r5, r6, r7, r8}
 800017c:	080001f1 	stmdaeq	r0, {r0, r4, r5, r6, r7, r8}
 8000180:	080001f1 	stmdaeq	r0, {r0, r4, r5, r6, r7, r8}
 8000184:	080001f1 	stmdaeq	r0, {r0, r4, r5, r6, r7, r8}
 8000188:	080001f1 	stmdaeq	r0, {r0, r4, r5, r6, r7, r8}
 800018c:	080001f1 	stmdaeq	r0, {r0, r4, r5, r6, r7, r8}
 8000190:	080001f1 	stmdaeq	r0, {r0, r4, r5, r6, r7, r8}
 8000194:	080001f1 	stmdaeq	r0, {r0, r4, r5, r6, r7, r8}
 8000198:	080001f1 	stmdaeq	r0, {r0, r4, r5, r6, r7, r8}
 800019c:	080001f1 	stmdaeq	r0, {r0, r4, r5, r6, r7, r8}
 80001a0:	080001f1 	stmdaeq	r0, {r0, r4, r5, r6, r7, r8}
 80001a4:	080001f1 	stmdaeq	r0, {r0, r4, r5, r6, r7, r8}
 80001a8:	080001f1 	stmdaeq	r0, {r0, r4, r5, r6, r7, r8}
 80001ac:	080001f1 	stmdaeq	r0, {r0, r4, r5, r6, r7, r8}
 80001b0:	080001f1 	stmdaeq	r0, {r0, r4, r5, r6, r7, r8}
 80001b4:	080001f1 	stmdaeq	r0, {r0, r4, r5, r6, r7, r8}
 80001b8:	080001f1 	stmdaeq	r0, {r0, r4, r5, r6, r7, r8}
 80001bc:	080001f1 	stmdaeq	r0, {r0, r4, r5, r6, r7, r8}
 80001c0:	080001f1 	stmdaeq	r0, {r0, r4, r5, r6, r7, r8}
 80001c4:	080001f1 	stmdaeq	r0, {r0, r4, r5, r6, r7, r8}
 80001c8:	080001f1 	stmdaeq	r0, {r0, r4, r5, r6, r7, r8}
 80001cc:	080001f1 	stmdaeq	r0, {r0, r4, r5, r6, r7, r8}
 80001d0:	080001f1 	stmdaeq	r0, {r0, r4, r5, r6, r7, r8}
 80001d4:	080001f1 	stmdaeq	r0, {r0, r4, r5, r6, r7, r8}
 80001d8:	080001f1 	stmdaeq	r0, {r0, r4, r5, r6, r7, r8}
 80001dc:	080001f1 	stmdaeq	r0, {r0, r4, r5, r6, r7, r8}
 80001e0:	4b02b508 	blmi	80ad608 <__exidx_end+0xa4cb0>
 80001e4:	4798685b 			; <UNDEFINED> instruction: 0x4798685b
 80001e8:	bd082000 	stclt	0, cr2, [r8, #-0]
 80001ec:	08008000 	stmdaeq	r0, {pc}
 80001f0:	4770e7fe 			; <UNDEFINED> instruction: 0x4770e7fe
 80001f4:	4a1db538 	bmi	876d6dc <__exidx_end+0x764d84>
 80001f8:	491e4b1d 	ldmdbmi	lr, {r0, r2, r3, r4, r8, r9, fp, lr}
 80001fc:	d320428b 			; <UNDEFINED> instruction: 0xd320428b
 8000200:	21004a1d 	tstcs	r0, sp, lsl sl
 8000204:	d3214293 			; <UNDEFINED> instruction: 0xd3214293
 8000208:	23e0f04f 	mvncs	pc, #79	; 0x4f
 800020c:	4d1c4c1b 	ldcmi	12, cr4, [ip, #-108]	; 0xffffff94
 8000210:	2d14f8d3 	ldccs	8, cr15, [r4, #-844]	; 0xfffffcb4
 8000214:	7200f442 	andvc	pc, r0, #1107296256	; 0x42000000
 8000218:	2d14f8c3 	ldccs	8, cr15, [r4, #-780]	; 0xfffffcf4
 800021c:	2d88f8d3 	stccs	8, cr15, [r8, #844]	; 0x34c
 8000220:	0270f442 	rsbseq	pc, r0, #1107296256	; 0x42000000
 8000224:	2d88f8c3 	stccs	8, cr15, [r8, #780]	; 0x30c
 8000228:	d31242ac 	tstle	r2, #172, 4	; 0xc000000a
 800022c:	4d164c15 	ldcmi	12, cr4, [r6, #-84]	; 0xffffffac
 8000230:	d31242ac 	tstle	r2, #172, 4	; 0xc000000a
 8000234:	f7ff4c15 			; <UNDEFINED> instruction: 0xf7ff4c15
 8000238:	4d15ffd3 	ldcmi	15, cr15, [r5, #-844]	; 0xfffffcb4
 800023c:	d31042ac 	tstle	r0, #172, 4	; 0xc000000a
 8000240:	f852bd38 			; <UNDEFINED> instruction: 0xf852bd38
 8000244:	f8430b04 			; <UNDEFINED> instruction: 0xf8430b04
 8000248:	e7d70b04 	ldrb	r0, [r7, r4, lsl #22]
 800024c:	1b04f843 	blne	813e360 <__exidx_end+0x135a08>
 8000250:	f854e7d8 			; <UNDEFINED> instruction: 0xf854e7d8
 8000254:	47983b04 	ldrmi	r3, [r8, r4, lsl #22]
 8000258:	f854e7e6 			; <UNDEFINED> instruction: 0xf854e7e6
 800025c:	47983b04 	ldrmi	r3, [r8, r4, lsl #22]
 8000260:	f854e7e6 			; <UNDEFINED> instruction: 0xf854e7e6
 8000264:	47983b04 	ldrmi	r3, [r8, r4, lsl #22]
 8000268:	bf00e7e8 	svclt	0x0000e7e8
 800026c:	08000294 	stmdaeq	r0, {r2, r4, r7, r9}
 8000270:	20000000 	andcs	r0, r0, r0
 8000274:	20000000 	andcs	r0, r0, r0
 8000278:	20000000 	andcs	r0, r0, r0
 800027c:	08000294 	stmdaeq	r0, {r2, r4, r7, r9}
 8000280:	08000294 	stmdaeq	r0, {r2, r4, r7, r9}
 8000284:	08000294 	stmdaeq	r0, {r2, r4, r7, r9}
 8000288:	08000294 	stmdaeq	r0, {r2, r4, r7, r9}
 800028c:	08000294 	stmdaeq	r0, {r2, r4, r7, r9}
 8000290:	08000294 	stmdaeq	r0, {r2, r4, r7, r9}
 8000294:	ffffffff 			; <UNDEFINED> instruction: 0xffffffff
 8000298:	ffffffff 			; <UNDEFINED> instruction: 0xffffffff
 800029c:	ffffffff 			; <UNDEFINED> instruction: 0xffffffff
 80002a0:	ffffffff 			; <UNDEFINED> instruction: 0xffffffff
 80002a4:	ffffffff 			; <UNDEFINED> instruction: 0xffffffff
 80002a8:	ffffffff 			; <UNDEFINED> instruction: 0xffffffff
 80002ac:	ffffffff 			; <UNDEFINED> instruction: 0xffffffff
 80002b0:	ffffffff 			; <UNDEFINED> instruction: 0xffffffff
 80002b4:	ffffffff 			; <UNDEFINED> instruction: 0xffffffff
 80002b8:	ffffffff 			; <UNDEFINED> instruction: 0xffffffff
 80002bc:	ffffffff 			; <UNDEFINED> instruction: 0xffffffff
 80002c0:	ffffffff 			; <UNDEFINED> instruction: 0xffffffff
 80002c4:	ffffffff 			; <UNDEFINED> instruction: 0xffffffff
 80002c8:	ffffffff 			; <UNDEFINED> instruction: 0xffffffff
 80002cc:	ffffffff 			; <UNDEFINED> instruction: 0xffffffff
 80002d0:	ffffffff 			; <UNDEFINED> instruction: 0xffffffff
 80002d4:	ffffffff 			; <UNDEFINED> instruction: 0xffffffff
 80002d8:	ffffffff 			; <UNDEFINED> instruction: 0xffffffff
 80002dc:	ffffffff 			; <UNDEFINED> instruction: 0xffffffff
 80002e0:	ffffffff 			; <UNDEFINED> instruction: 0xffffffff
 80002e4:	ffffffff 			; <UNDEFINED> instruction: 0xffffffff
 80002e8:	ffffffff 			; <UNDEFINED> instruction: 0xffffffff
 80002ec:	ffffffff 			; <UNDEFINED> instruction: 0xffffffff
 80002f0:	ffffffff 			; <UNDEFINED> instruction: 0xffffffff
 80002f4:	ffffffff 			; <UNDEFINED> instruction: 0xffffffff
 80002f8:	ffffffff 			; <UNDEFINED> instruction: 0xffffffff
 80002fc:	ffffffff 			; <UNDEFINED> instruction: 0xffffffff
 8000300:	ffffffff 			; <UNDEFINED> instruction: 0xffffffff
 8000304:	ffffffff 			; <UNDEFINED> instruction: 0xffffffff
 8000308:	ffffffff 			; <UNDEFINED> instruction: 0xffffffff
 800030c:	ffffffff 			; <UNDEFINED> instruction: 0xffffffff
 8000310:	ffffffff 			; <UNDEFINED> instruction: 0xffffffff
 8000314:	ffffffff 			; <UNDEFINED> instruction: 0xffffffff
 8000318:	ffffffff 			; <UNDEFINED> instruction: 0xffffffff
 800031c:	ffffffff 			; <UNDEFINED> instruction: 0xffffffff
 8000320:	ffffffff 			; <UNDEFINED> instruction: 0xffffffff
 8000324:	ffffffff 			; <UNDEFINED> instruction: 0xffffffff
 8000328:	ffffffff 			; <UNDEFINED> instruction: 0xffffffff
 800032c:	ffffffff 			; <UNDEFINED> instruction: 0xffffffff
 8000330:	ffffffff 			; <UNDEFINED> instruction: 0xffffffff
 8000334:	ffffffff 			; <UNDEFINED> instruction: 0xffffffff
 8000338:	ffffffff 			; <UNDEFINED> instruction: 0xffffffff
 800033c:	ffffffff 			; <UNDEFINED> instruction: 0xffffffff
 8000340:	ffffffff 			; <UNDEFINED> instruction: 0xffffffff
 8000344:	ffffffff 			; <UNDEFINED> instruction: 0xffffffff
 8000348:	ffffffff 			; <UNDEFINED> instruction: 0xffffffff
 800034c:	ffffffff 			; <UNDEFINED> instruction: 0xffffffff
 8000350:	ffffffff 			; <UNDEFINED> instruction: 0xffffffff
 8000354:	ffffffff 			; <UNDEFINED> instruction: 0xffffffff
 8000358:	ffffffff 			; <UNDEFINED> instruction: 0xffffffff
 800035c:	ffffffff 			; <UNDEFINED> instruction: 0xffffffff
 8000360:	ffffffff 			; <UNDEFINED> instruction: 0xffffffff
 8000364:	ffffffff 			; <UNDEFINED> instruction: 0xffffffff
 8000368:	ffffffff 			; <UNDEFINED> instruction: 0xffffffff
 800036c:	ffffffff 			; <UNDEFINED> instruction: 0xffffffff
 8000370:	ffffffff 			; <UNDEFINED> instruction: 0xffffffff
 8000374:	ffffffff 			; <UNDEFINED> instruction: 0xffffffff
 8000378:	ffffffff 			; <UNDEFINED> instruction: 0xffffffff
 800037c:	ffffffff 			; <UNDEFINED> instruction: 0xffffffff
 8000380:	ffffffff 			; <UNDEFINED> instruction: 0xffffffff
 8000384:	ffffffff 			; <UNDEFINED> instruction: 0xffffffff
 8000388:	ffffffff 			; <UNDEFINED> instruction: 0xffffffff
 800038c:	ffffffff 			; <UNDEFINED> instruction: 0xffffffff
 8000390:	ffffffff 			; <UNDEFINED> instruction: 0xffffffff
 8000394:	ffffffff 			; <UNDEFINED> instruction: 0xffffffff
 8000398:	ffffffff 			; <UNDEFINED> instruction: 0xffffffff
 800039c:	ffffffff 			; <UNDEFINED> instruction: 0xffffffff
 80003a0:	ffffffff 			; <UNDEFINED> instruction: 0xffffffff
 80003a4:	ffffffff 			; <UNDEFINED> instruction: 0xffffffff
 80003a8:	ffffffff 			; <UNDEFINED> instruction: 0xffffffff
 80003ac:	ffffffff 			; <UNDEFINED> instruction: 0xffffffff
 80003b0:	ffffffff 			; <UNDEFINED> instruction: 0xffffffff
 80003b4:	ffffffff 			; <UNDEFINED> instruction: 0xffffffff
 80003b8:	ffffffff 			; <UNDEFINED> instruction: 0xffffffff
 80003bc:	ffffffff 			; <UNDEFINED> instruction: 0xffffffff
 80003c0:	ffffffff 			; <UNDEFINED> instruction: 0xffffffff
 80003c4:	ffffffff 			; <UNDEFINED> instruction: 0xffffffff
 80003c8:	ffffffff 			; <UNDEFINED> instruction: 0xffffffff
 80003cc:	ffffffff 			; <UNDEFINED> instruction: 0xffffffff
 80003d0:	ffffffff 			; <UNDEFINED> instruction: 0xffffffff
 80003d4:	ffffffff 			; <UNDEFINED> instruction: 0xffffffff
 80003d8:	ffffffff 			; <UNDEFINED> instruction: 0xffffffff
 80003dc:	ffffffff 			; <UNDEFINED> instruction: 0xffffffff
 80003e0:	ffffffff 			; <UNDEFINED> instruction: 0xffffffff
 80003e4:	ffffffff 			; <UNDEFINED> instruction: 0xffffffff
 80003e8:	ffffffff 			; <UNDEFINED> instruction: 0xffffffff
 80003ec:	ffffffff 			; <UNDEFINED> instruction: 0xffffffff
 80003f0:	ffffffff 			; <UNDEFINED> instruction: 0xffffffff
 80003f4:	ffffffff 			; <UNDEFINED> instruction: 0xffffffff
 80003f8:	ffffffff 			; <UNDEFINED> instruction: 0xffffffff
 80003fc:	ffffffff 			; <UNDEFINED> instruction: 0xffffffff
 8000400:	ffffffff 			; <UNDEFINED> instruction: 0xffffffff
 8000404:	ffffffff 			; <UNDEFINED> instruction: 0xffffffff
 8000408:	ffffffff 			; <UNDEFINED> instruction: 0xffffffff
 800040c:	ffffffff 			; <UNDEFINED> instruction: 0xffffffff
 8000410:	ffffffff 			; <UNDEFINED> instruction: 0xffffffff
 8000414:	ffffffff 			; <UNDEFINED> instruction: 0xffffffff
 8000418:	ffffffff 			; <UNDEFINED> instruction: 0xffffffff
 800041c:	ffffffff 			; <UNDEFINED> instruction: 0xffffffff
 8000420:	ffffffff 			; <UNDEFINED> instruction: 0xffffffff
 8000424:	ffffffff 			; <UNDEFINED> instruction: 0xffffffff
 8000428:	ffffffff 			; <UNDEFINED> instruction: 0xffffffff
 800042c:	ffffffff 			; <UNDEFINED> instruction: 0xffffffff
 8000430:	ffffffff 			; <UNDEFINED> instruction: 0xffffffff
 8000434:	ffffffff 			; <UNDEFINED> instruction: 0xffffffff
 8000438:	ffffffff 			; <UNDEFINED> instruction: 0xffffffff
 800043c:	ffffffff 			; <UNDEFINED> instruction: 0xffffffff
 8000440:	ffffffff 			; <UNDEFINED> instruction: 0xffffffff
 8000444:	ffffffff 			; <UNDEFINED> instruction: 0xffffffff
 8000448:	ffffffff 			; <UNDEFINED> instruction: 0xffffffff
 800044c:	ffffffff 			; <UNDEFINED> instruction: 0xffffffff
 8000450:	ffffffff 			; <UNDEFINED> instruction: 0xffffffff
 8000454:	ffffffff 			; <UNDEFINED> instruction: 0xffffffff
 8000458:	ffffffff 			; <UNDEFINED> instruction: 0xffffffff
 800045c:	ffffffff 			; <UNDEFINED> instruction: 0xffffffff
 8000460:	ffffffff 			; <UNDEFINED> instruction: 0xffffffff
 8000464:	ffffffff 			; <UNDEFINED> instruction: 0xffffffff
 8000468:	ffffffff 			; <UNDEFINED> instruction: 0xffffffff
 800046c:	ffffffff 			; <UNDEFINED> instruction: 0xffffffff
 8000470:	ffffffff 			; <UNDEFINED> instruction: 0xffffffff
 8000474:	ffffffff 			; <UNDEFINED> instruction: 0xffffffff
 8000478:	ffffffff 			; <UNDEFINED> instruction: 0xffffffff
 800047c:	ffffffff 			; <UNDEFINED> instruction: 0xffffffff
 8000480:	ffffffff 			; <UNDEFINED> instruction: 0xffffffff
 8000484:	ffffffff 			; <UNDEFINED> instruction: 0xffffffff
 8000488:	ffffffff 			; <UNDEFINED> instruction: 0xffffffff
 800048c:	ffffffff 			; <UNDEFINED> instruction: 0xffffffff
 8000490:	ffffffff 			; <UNDEFINED> instruction: 0xffffffff
 8000494:	ffffffff 			; <UNDEFINED> instruction: 0xffffffff
 8000498:	ffffffff 			; <UNDEFINED> instruction: 0xffffffff
 800049c:	ffffffff 			; <UNDEFINED> instruction: 0xffffffff
 80004a0:	ffffffff 			; <UNDEFINED> instruction: 0xffffffff
 80004a4:	ffffffff 			; <UNDEFINED> instruction: 0xffffffff
 80004a8:	ffffffff 			; <UNDEFINED> instruction: 0xffffffff
 80004ac:	ffffffff 			; <UNDEFINED> instruction: 0xffffffff
 80004b0:	ffffffff 			; <UNDEFINED> instruction: 0xffffffff
 80004b4:	ffffffff 			; <UNDEFINED> instruction: 0xffffffff
 80004b8:	ffffffff 			; <UNDEFINED> instruction: 0xffffffff
 80004bc:	ffffffff 			; <UNDEFINED> instruction: 0xffffffff
 80004c0:	ffffffff 			; <UNDEFINED> instruction: 0xffffffff
 80004c4:	ffffffff 			; <UNDEFINED> instruction: 0xffffffff
 80004c8:	ffffffff 			; <UNDEFINED> instruction: 0xffffffff
 80004cc:	ffffffff 			; <UNDEFINED> instruction: 0xffffffff
 80004d0:	ffffffff 			; <UNDEFINED> instruction: 0xffffffff
 80004d4:	ffffffff 			; <UNDEFINED> instruction: 0xffffffff
 80004d8:	ffffffff 			; <UNDEFINED> instruction: 0xffffffff
 80004dc:	ffffffff 			; <UNDEFINED> instruction: 0xffffffff
 80004e0:	ffffffff 			; <UNDEFINED> instruction: 0xffffffff
 80004e4:	ffffffff 			; <UNDEFINED> instruction: 0xffffffff
 80004e8:	ffffffff 			; <UNDEFINED> instruction: 0xffffffff
 80004ec:	ffffffff 			; <UNDEFINED> instruction: 0xffffffff
 80004f0:	ffffffff 			; <UNDEFINED> instruction: 0xffffffff
 80004f4:	ffffffff 			; <UNDEFINED> instruction: 0xffffffff
 80004f8:	ffffffff 			; <UNDEFINED> instruction: 0xffffffff
 80004fc:	ffffffff 			; <UNDEFINED> instruction: 0xffffffff
 8000500:	ffffffff 			; <UNDEFINED> instruction: 0xffffffff
 8000504:	ffffffff 			; <UNDEFINED> instruction: 0xffffffff
 8000508:	ffffffff 			; <UNDEFINED> instruction: 0xffffffff
 800050c:	ffffffff 			; <UNDEFINED> instruction: 0xffffffff
 8000510:	ffffffff 			; <UNDEFINED> instruction: 0xffffffff
 8000514:	ffffffff 			; <UNDEFINED> instruction: 0xffffffff
 8000518:	ffffffff 			; <UNDEFINED> instruction: 0xffffffff
 800051c:	ffffffff 			; <UNDEFINED> instruction: 0xffffffff
 8000520:	ffffffff 			; <UNDEFINED> instruction: 0xffffffff
 8000524:	ffffffff 			; <UNDEFINED> instruction: 0xffffffff
 8000528:	ffffffff 			; <UNDEFINED> instruction: 0xffffffff
 800052c:	ffffffff 			; <UNDEFINED> instruction: 0xffffffff
 8000530:	ffffffff 			; <UNDEFINED> instruction: 0xffffffff
 8000534:	ffffffff 			; <UNDEFINED> instruction: 0xffffffff
 8000538:	ffffffff 			; <UNDEFINED> instruction: 0xffffffff
 800053c:	ffffffff 			; <UNDEFINED> instruction: 0xffffffff
 8000540:	ffffffff 			; <UNDEFINED> instruction: 0xffffffff
 8000544:	ffffffff 			; <UNDEFINED> instruction: 0xffffffff
 8000548:	ffffffff 			; <UNDEFINED> instruction: 0xffffffff
 800054c:	ffffffff 			; <UNDEFINED> instruction: 0xffffffff
 8000550:	ffffffff 			; <UNDEFINED> instruction: 0xffffffff
 8000554:	ffffffff 			; <UNDEFINED> instruction: 0xffffffff
 8000558:	ffffffff 			; <UNDEFINED> instruction: 0xffffffff
 800055c:	ffffffff 			; <UNDEFINED> instruction: 0xffffffff
 8000560:	ffffffff 			; <UNDEFINED> instruction: 0xffffffff
 8000564:	ffffffff 			; <UNDEFINED> instruction: 0xffffffff
 8000568:	ffffffff 			; <UNDEFINED> instruction: 0xffffffff
 800056c:	ffffffff 			; <UNDEFINED> instruction: 0xffffffff
 8000570:	ffffffff 			; <UNDEFINED> instruction: 0xffffffff
 8000574:	ffffffff 			; <UNDEFINED> instruction: 0xffffffff
 8000578:	ffffffff 			; <UNDEFINED> instruction: 0xffffffff
 800057c:	ffffffff 			; <UNDEFINED> instruction: 0xffffffff
 8000580:	ffffffff 			; <UNDEFINED> instruction: 0xffffffff
 8000584:	ffffffff 			; <UNDEFINED> instruction: 0xffffffff
 8000588:	ffffffff 			; <UNDEFINED> instruction: 0xffffffff
 800058c:	ffffffff 			; <UNDEFINED> instruction: 0xffffffff
 8000590:	ffffffff 			; <UNDEFINED> instruction: 0xffffffff
 8000594:	ffffffff 			; <UNDEFINED> instruction: 0xffffffff
 8000598:	ffffffff 			; <UNDEFINED> instruction: 0xffffffff
 800059c:	ffffffff 			; <UNDEFINED> instruction: 0xffffffff
 80005a0:	ffffffff 			; <UNDEFINED> instruction: 0xffffffff
 80005a4:	ffffffff 			; <UNDEFINED> instruction: 0xffffffff
 80005a8:	ffffffff 			; <UNDEFINED> instruction: 0xffffffff
 80005ac:	ffffffff 			; <UNDEFINED> instruction: 0xffffffff
 80005b0:	ffffffff 			; <UNDEFINED> instruction: 0xffffffff
 80005b4:	ffffffff 			; <UNDEFINED> instruction: 0xffffffff
 80005b8:	ffffffff 			; <UNDEFINED> instruction: 0xffffffff
 80005bc:	ffffffff 			; <UNDEFINED> instruction: 0xffffffff
 80005c0:	ffffffff 			; <UNDEFINED> instruction: 0xffffffff
 80005c4:	ffffffff 			; <UNDEFINED> instruction: 0xffffffff
 80005c8:	ffffffff 			; <UNDEFINED> instruction: 0xffffffff
 80005cc:	ffffffff 			; <UNDEFINED> instruction: 0xffffffff
 80005d0:	ffffffff 			; <UNDEFINED> instruction: 0xffffffff
 80005d4:	ffffffff 			; <UNDEFINED> instruction: 0xffffffff
 80005d8:	ffffffff 			; <UNDEFINED> instruction: 0xffffffff
 80005dc:	ffffffff 			; <UNDEFINED> instruction: 0xffffffff
 80005e0:	ffffffff 			; <UNDEFINED> instruction: 0xffffffff
 80005e4:	ffffffff 			; <UNDEFINED> instruction: 0xffffffff
 80005e8:	ffffffff 			; <UNDEFINED> instruction: 0xffffffff
 80005ec:	ffffffff 			; <UNDEFINED> instruction: 0xffffffff
 80005f0:	ffffffff 			; <UNDEFINED> instruction: 0xffffffff
 80005f4:	ffffffff 			; <UNDEFINED> instruction: 0xffffffff
 80005f8:	ffffffff 			; <UNDEFINED> instruction: 0xffffffff
 80005fc:	ffffffff 			; <UNDEFINED> instruction: 0xffffffff
 8000600:	ffffffff 			; <UNDEFINED> instruction: 0xffffffff
 8000604:	ffffffff 			; <UNDEFINED> instruction: 0xffffffff
 8000608:	ffffffff 			; <UNDEFINED> instruction: 0xffffffff
 800060c:	ffffffff 			; <UNDEFINED> instruction: 0xffffffff
 8000610:	ffffffff 			; <UNDEFINED> instruction: 0xffffffff
 8000614:	ffffffff 			; <UNDEFINED> instruction: 0xffffffff
 8000618:	ffffffff 			; <UNDEFINED> instruction: 0xffffffff
 800061c:	ffffffff 			; <UNDEFINED> instruction: 0xffffffff
 8000620:	ffffffff 			; <UNDEFINED> instruction: 0xffffffff
 8000624:	ffffffff 			; <UNDEFINED> instruction: 0xffffffff
 8000628:	ffffffff 			; <UNDEFINED> instruction: 0xffffffff
 800062c:	ffffffff 			; <UNDEFINED> instruction: 0xffffffff
 8000630:	ffffffff 			; <UNDEFINED> instruction: 0xffffffff
 8000634:	ffffffff 			; <UNDEFINED> instruction: 0xffffffff
 8000638:	ffffffff 			; <UNDEFINED> instruction: 0xffffffff
 800063c:	ffffffff 			; <UNDEFINED> instruction: 0xffffffff
 8000640:	ffffffff 			; <UNDEFINED> instruction: 0xffffffff
 8000644:	ffffffff 			; <UNDEFINED> instruction: 0xffffffff
 8000648:	ffffffff 			; <UNDEFINED> instruction: 0xffffffff
 800064c:	ffffffff 			; <UNDEFINED> instruction: 0xffffffff
 8000650:	ffffffff 			; <UNDEFINED> instruction: 0xffffffff
 8000654:	ffffffff 			; <UNDEFINED> instruction: 0xffffffff
 8000658:	ffffffff 			; <UNDEFINED> instruction: 0xffffffff
 800065c:	ffffffff 			; <UNDEFINED> instruction: 0xffffffff
 8000660:	ffffffff 			; <UNDEFINED> instruction: 0xffffffff
 8000664:	ffffffff 			; <UNDEFINED> instruction: 0xffffffff
 8000668:	ffffffff 			; <UNDEFINED> instruction: 0xffffffff
 800066c:	ffffffff 			; <UNDEFINED> instruction: 0xffffffff
 8000670:	ffffffff 			; <UNDEFINED> instruction: 0xffffffff
 8000674:	ffffffff 			; <UNDEFINED> instruction: 0xffffffff
 8000678:	ffffffff 			; <UNDEFINED> instruction: 0xffffffff
 800067c:	ffffffff 			; <UNDEFINED> instruction: 0xffffffff
 8000680:	ffffffff 			; <UNDEFINED> instruction: 0xffffffff
 8000684:	ffffffff 			; <UNDEFINED> instruction: 0xffffffff
 8000688:	ffffffff 			; <UNDEFINED> instruction: 0xffffffff
 800068c:	ffffffff 			; <UNDEFINED> instruction: 0xffffffff
 8000690:	ffffffff 			; <UNDEFINED> instruction: 0xffffffff
 8000694:	ffffffff 			; <UNDEFINED> instruction: 0xffffffff
 8000698:	ffffffff 			; <UNDEFINED> instruction: 0xffffffff
 800069c:	ffffffff 			; <UNDEFINED> instruction: 0xffffffff
 80006a0:	ffffffff 			; <UNDEFINED> instruction: 0xffffffff
 80006a4:	ffffffff 			; <UNDEFINED> instruction: 0xffffffff
 80006a8:	ffffffff 			; <UNDEFINED> instruction: 0xffffffff
 80006ac:	ffffffff 			; <UNDEFINED> instruction: 0xffffffff
 80006b0:	ffffffff 			; <UNDEFINED> instruction: 0xffffffff
 80006b4:	ffffffff 			; <UNDEFINED> instruction: 0xffffffff
 80006b8:	ffffffff 			; <UNDEFINED> instruction: 0xffffffff
 80006bc:	ffffffff 			; <UNDEFINED> instruction: 0xffffffff
 80006c0:	ffffffff 			; <UNDEFINED> instruction: 0xffffffff
 80006c4:	ffffffff 			; <UNDEFINED> instruction: 0xffffffff
 80006c8:	ffffffff 			; <UNDEFINED> instruction: 0xffffffff
 80006cc:	ffffffff 			; <UNDEFINED> instruction: 0xffffffff
 80006d0:	ffffffff 			; <UNDEFINED> instruction: 0xffffffff
 80006d4:	ffffffff 			; <UNDEFINED> instruction: 0xffffffff
 80006d8:	ffffffff 			; <UNDEFINED> instruction: 0xffffffff
 80006dc:	ffffffff 			; <UNDEFINED> instruction: 0xffffffff
 80006e0:	ffffffff 			; <UNDEFINED> instruction: 0xffffffff
 80006e4:	ffffffff 			; <UNDEFINED> instruction: 0xffffffff
 80006e8:	ffffffff 			; <UNDEFINED> instruction: 0xffffffff
 80006ec:	ffffffff 			; <UNDEFINED> instruction: 0xffffffff
 80006f0:	ffffffff 			; <UNDEFINED> instruction: 0xffffffff
 80006f4:	ffffffff 			; <UNDEFINED> instruction: 0xffffffff
 80006f8:	ffffffff 			; <UNDEFINED> instruction: 0xffffffff
 80006fc:	ffffffff 			; <UNDEFINED> instruction: 0xffffffff
 8000700:	ffffffff 			; <UNDEFINED> instruction: 0xffffffff
 8000704:	ffffffff 			; <UNDEFINED> instruction: 0xffffffff
 8000708:	ffffffff 			; <UNDEFINED> instruction: 0xffffffff
 800070c:	ffffffff 			; <UNDEFINED> instruction: 0xffffffff
 8000710:	ffffffff 			; <UNDEFINED> instruction: 0xffffffff
 8000714:	ffffffff 			; <UNDEFINED> instruction: 0xffffffff
 8000718:	ffffffff 			; <UNDEFINED> instruction: 0xffffffff
 800071c:	ffffffff 			; <UNDEFINED> instruction: 0xffffffff
 8000720:	ffffffff 			; <UNDEFINED> instruction: 0xffffffff
 8000724:	ffffffff 			; <UNDEFINED> instruction: 0xffffffff
 8000728:	ffffffff 			; <UNDEFINED> instruction: 0xffffffff
 800072c:	ffffffff 			; <UNDEFINED> instruction: 0xffffffff
 8000730:	ffffffff 			; <UNDEFINED> instruction: 0xffffffff
 8000734:	ffffffff 			; <UNDEFINED> instruction: 0xffffffff
 8000738:	ffffffff 			; <UNDEFINED> instruction: 0xffffffff
 800073c:	ffffffff 			; <UNDEFINED> instruction: 0xffffffff
 8000740:	ffffffff 			; <UNDEFINED> instruction: 0xffffffff
 8000744:	ffffffff 			; <UNDEFINED> instruction: 0xffffffff
 8000748:	ffffffff 			; <UNDEFINED> instruction: 0xffffffff
 800074c:	ffffffff 			; <UNDEFINED> instruction: 0xffffffff
 8000750:	ffffffff 			; <UNDEFINED> instruction: 0xffffffff
 8000754:	ffffffff 			; <UNDEFINED> instruction: 0xffffffff
 8000758:	ffffffff 			; <UNDEFINED> instruction: 0xffffffff
 800075c:	ffffffff 			; <UNDEFINED> instruction: 0xffffffff
 8000760:	ffffffff 			; <UNDEFINED> instruction: 0xffffffff
 8000764:	ffffffff 			; <UNDEFINED> instruction: 0xffffffff
 8000768:	ffffffff 			; <UNDEFINED> instruction: 0xffffffff
 800076c:	ffffffff 			; <UNDEFINED> instruction: 0xffffffff
 8000770:	ffffffff 			; <UNDEFINED> instruction: 0xffffffff
 8000774:	ffffffff 			; <UNDEFINED> instruction: 0xffffffff
 8000778:	ffffffff 			; <UNDEFINED> instruction: 0xffffffff
 800077c:	ffffffff 			; <UNDEFINED> instruction: 0xffffffff
 8000780:	ffffffff 			; <UNDEFINED> instruction: 0xffffffff
 8000784:	ffffffff 			; <UNDEFINED> instruction: 0xffffffff
 8000788:	ffffffff 			; <UNDEFINED> instruction: 0xffffffff
 800078c:	ffffffff 			; <UNDEFINED> instruction: 0xffffffff
 8000790:	ffffffff 			; <UNDEFINED> instruction: 0xffffffff
 8000794:	ffffffff 			; <UNDEFINED> instruction: 0xffffffff
 8000798:	ffffffff 			; <UNDEFINED> instruction: 0xffffffff
 800079c:	ffffffff 			; <UNDEFINED> instruction: 0xffffffff
 80007a0:	ffffffff 			; <UNDEFINED> instruction: 0xffffffff
 80007a4:	ffffffff 			; <UNDEFINED> instruction: 0xffffffff
 80007a8:	ffffffff 			; <UNDEFINED> instruction: 0xffffffff
 80007ac:	ffffffff 			; <UNDEFINED> instruction: 0xffffffff
 80007b0:	ffffffff 			; <UNDEFINED> instruction: 0xffffffff
 80007b4:	ffffffff 			; <UNDEFINED> instruction: 0xffffffff
 80007b8:	ffffffff 			; <UNDEFINED> instruction: 0xffffffff
 80007bc:	ffffffff 			; <UNDEFINED> instruction: 0xffffffff
 80007c0:	ffffffff 			; <UNDEFINED> instruction: 0xffffffff
 80007c4:	ffffffff 			; <UNDEFINED> instruction: 0xffffffff
 80007c8:	ffffffff 			; <UNDEFINED> instruction: 0xffffffff
 80007cc:	ffffffff 			; <UNDEFINED> instruction: 0xffffffff
 80007d0:	ffffffff 			; <UNDEFINED> instruction: 0xffffffff
 80007d4:	ffffffff 			; <UNDEFINED> instruction: 0xffffffff
 80007d8:	ffffffff 			; <UNDEFINED> instruction: 0xffffffff
 80007dc:	ffffffff 			; <UNDEFINED> instruction: 0xffffffff
 80007e0:	ffffffff 			; <UNDEFINED> instruction: 0xffffffff
 80007e4:	ffffffff 			; <UNDEFINED> instruction: 0xffffffff
 80007e8:	ffffffff 			; <UNDEFINED> instruction: 0xffffffff
 80007ec:	ffffffff 			; <UNDEFINED> instruction: 0xffffffff
 80007f0:	ffffffff 			; <UNDEFINED> instruction: 0xffffffff
 80007f4:	ffffffff 			; <UNDEFINED> instruction: 0xffffffff
 80007f8:	ffffffff 			; <UNDEFINED> instruction: 0xffffffff
 80007fc:	ffffffff 			; <UNDEFINED> instruction: 0xffffffff
 8000800:	ffffffff 			; <UNDEFINED> instruction: 0xffffffff
 8000804:	ffffffff 			; <UNDEFINED> instruction: 0xffffffff
 8000808:	ffffffff 			; <UNDEFINED> instruction: 0xffffffff
 800080c:	ffffffff 			; <UNDEFINED> instruction: 0xffffffff
 8000810:	ffffffff 			; <UNDEFINED> instruction: 0xffffffff
 8000814:	ffffffff 			; <UNDEFINED> instruction: 0xffffffff
 8000818:	ffffffff 			; <UNDEFINED> instruction: 0xffffffff
 800081c:	ffffffff 			; <UNDEFINED> instruction: 0xffffffff
 8000820:	ffffffff 			; <UNDEFINED> instruction: 0xffffffff
 8000824:	ffffffff 			; <UNDEFINED> instruction: 0xffffffff
 8000828:	ffffffff 			; <UNDEFINED> instruction: 0xffffffff
 800082c:	ffffffff 			; <UNDEFINED> instruction: 0xffffffff
 8000830:	ffffffff 			; <UNDEFINED> instruction: 0xffffffff
 8000834:	ffffffff 			; <UNDEFINED> instruction: 0xffffffff
 8000838:	ffffffff 			; <UNDEFINED> instruction: 0xffffffff
 800083c:	ffffffff 			; <UNDEFINED> instruction: 0xffffffff
 8000840:	ffffffff 			; <UNDEFINED> instruction: 0xffffffff
 8000844:	ffffffff 			; <UNDEFINED> instruction: 0xffffffff
 8000848:	ffffffff 			; <UNDEFINED> instruction: 0xffffffff
 800084c:	ffffffff 			; <UNDEFINED> instruction: 0xffffffff
 8000850:	ffffffff 			; <UNDEFINED> instruction: 0xffffffff
 8000854:	ffffffff 			; <UNDEFINED> instruction: 0xffffffff
 8000858:	ffffffff 			; <UNDEFINED> instruction: 0xffffffff
 800085c:	ffffffff 			; <UNDEFINED> instruction: 0xffffffff
 8000860:	ffffffff 			; <UNDEFINED> instruction: 0xffffffff
 8000864:	ffffffff 			; <UNDEFINED> instruction: 0xffffffff
 8000868:	ffffffff 			; <UNDEFINED> instruction: 0xffffffff
 800086c:	ffffffff 			; <UNDEFINED> instruction: 0xffffffff
 8000870:	ffffffff 			; <UNDEFINED> instruction: 0xffffffff
 8000874:	ffffffff 			; <UNDEFINED> instruction: 0xffffffff
 8000878:	ffffffff 			; <UNDEFINED> instruction: 0xffffffff
 800087c:	ffffffff 			; <UNDEFINED> instruction: 0xffffffff
 8000880:	ffffffff 			; <UNDEFINED> instruction: 0xffffffff
 8000884:	ffffffff 			; <UNDEFINED> instruction: 0xffffffff
 8000888:	ffffffff 			; <UNDEFINED> instruction: 0xffffffff
 800088c:	ffffffff 			; <UNDEFINED> instruction: 0xffffffff
 8000890:	ffffffff 			; <UNDEFINED> instruction: 0xffffffff
 8000894:	ffffffff 			; <UNDEFINED> instruction: 0xffffffff
 8000898:	ffffffff 			; <UNDEFINED> instruction: 0xffffffff
 800089c:	ffffffff 			; <UNDEFINED> instruction: 0xffffffff
 80008a0:	ffffffff 			; <UNDEFINED> instruction: 0xffffffff
 80008a4:	ffffffff 			; <UNDEFINED> instruction: 0xffffffff
 80008a8:	ffffffff 			; <UNDEFINED> instruction: 0xffffffff
 80008ac:	ffffffff 			; <UNDEFINED> instruction: 0xffffffff
 80008b0:	ffffffff 			; <UNDEFINED> instruction: 0xffffffff
 80008b4:	ffffffff 			; <UNDEFINED> instruction: 0xffffffff
 80008b8:	ffffffff 			; <UNDEFINED> instruction: 0xffffffff
 80008bc:	ffffffff 			; <UNDEFINED> instruction: 0xffffffff
 80008c0:	ffffffff 			; <UNDEFINED> instruction: 0xffffffff
 80008c4:	ffffffff 			; <UNDEFINED> instruction: 0xffffffff
 80008c8:	ffffffff 			; <UNDEFINED> instruction: 0xffffffff
 80008cc:	ffffffff 			; <UNDEFINED> instruction: 0xffffffff
 80008d0:	ffffffff 			; <UNDEFINED> instruction: 0xffffffff
 80008d4:	ffffffff 			; <UNDEFINED> instruction: 0xffffffff
 80008d8:	ffffffff 			; <UNDEFINED> instruction: 0xffffffff
 80008dc:	ffffffff 			; <UNDEFINED> instruction: 0xffffffff
 80008e0:	ffffffff 			; <UNDEFINED> instruction: 0xffffffff
 80008e4:	ffffffff 			; <UNDEFINED> instruction: 0xffffffff
 80008e8:	ffffffff 			; <UNDEFINED> instruction: 0xffffffff
 80008ec:	ffffffff 			; <UNDEFINED> instruction: 0xffffffff
 80008f0:	ffffffff 			; <UNDEFINED> instruction: 0xffffffff
 80008f4:	ffffffff 			; <UNDEFINED> instruction: 0xffffffff
 80008f8:	ffffffff 			; <UNDEFINED> instruction: 0xffffffff
 80008fc:	ffffffff 			; <UNDEFINED> instruction: 0xffffffff
 8000900:	ffffffff 			; <UNDEFINED> instruction: 0xffffffff
 8000904:	ffffffff 			; <UNDEFINED> instruction: 0xffffffff
 8000908:	ffffffff 			; <UNDEFINED> instruction: 0xffffffff
 800090c:	ffffffff 			; <UNDEFINED> instruction: 0xffffffff
 8000910:	ffffffff 			; <UNDEFINED> instruction: 0xffffffff
 8000914:	ffffffff 			; <UNDEFINED> instruction: 0xffffffff
 8000918:	ffffffff 			; <UNDEFINED> instruction: 0xffffffff
 800091c:	ffffffff 			; <UNDEFINED> instruction: 0xffffffff
 8000920:	ffffffff 			; <UNDEFINED> instruction: 0xffffffff
 8000924:	ffffffff 			; <UNDEFINED> instruction: 0xffffffff
 8000928:	ffffffff 			; <UNDEFINED> instruction: 0xffffffff
 800092c:	ffffffff 			; <UNDEFINED> instruction: 0xffffffff
 8000930:	ffffffff 			; <UNDEFINED> instruction: 0xffffffff
 8000934:	ffffffff 			; <UNDEFINED> instruction: 0xffffffff
 8000938:	ffffffff 			; <UNDEFINED> instruction: 0xffffffff
 800093c:	ffffffff 			; <UNDEFINED> instruction: 0xffffffff
 8000940:	ffffffff 			; <UNDEFINED> instruction: 0xffffffff
 8000944:	ffffffff 			; <UNDEFINED> instruction: 0xffffffff
 8000948:	ffffffff 			; <UNDEFINED> instruction: 0xffffffff
 800094c:	ffffffff 			; <UNDEFINED> instruction: 0xffffffff
 8000950:	ffffffff 			; <UNDEFINED> instruction: 0xffffffff
 8000954:	ffffffff 			; <UNDEFINED> instruction: 0xffffffff
 8000958:	ffffffff 			; <UNDEFINED> instruction: 0xffffffff
 800095c:	ffffffff 			; <UNDEFINED> instruction: 0xffffffff
 8000960:	ffffffff 			; <UNDEFINED> instruction: 0xffffffff
 8000964:	ffffffff 			; <UNDEFINED> instruction: 0xffffffff
 8000968:	ffffffff 			; <UNDEFINED> instruction: 0xffffffff
 800096c:	ffffffff 			; <UNDEFINED> instruction: 0xffffffff
 8000970:	ffffffff 			; <UNDEFINED> instruction: 0xffffffff
 8000974:	ffffffff 			; <UNDEFINED> instruction: 0xffffffff
 8000978:	ffffffff 			; <UNDEFINED> instruction: 0xffffffff
 800097c:	ffffffff 			; <UNDEFINED> instruction: 0xffffffff
 8000980:	ffffffff 			; <UNDEFINED> instruction: 0xffffffff
 8000984:	ffffffff 			; <UNDEFINED> instruction: 0xffffffff
 8000988:	ffffffff 			; <UNDEFINED> instruction: 0xffffffff
 800098c:	ffffffff 			; <UNDEFINED> instruction: 0xffffffff
 8000990:	ffffffff 			; <UNDEFINED> instruction: 0xffffffff
 8000994:	ffffffff 			; <UNDEFINED> instruction: 0xffffffff
 8000998:	ffffffff 			; <UNDEFINED> instruction: 0xffffffff
 800099c:	ffffffff 			; <UNDEFINED> instruction: 0xffffffff
 80009a0:	ffffffff 			; <UNDEFINED> instruction: 0xffffffff
 80009a4:	ffffffff 			; <UNDEFINED> instruction: 0xffffffff
 80009a8:	ffffffff 			; <UNDEFINED> instruction: 0xffffffff
 80009ac:	ffffffff 			; <UNDEFINED> instruction: 0xffffffff
 80009b0:	ffffffff 			; <UNDEFINED> instruction: 0xffffffff
 80009b4:	ffffffff 			; <UNDEFINED> instruction: 0xffffffff
 80009b8:	ffffffff 			; <UNDEFINED> instruction: 0xffffffff
 80009bc:	ffffffff 			; <UNDEFINED> instruction: 0xffffffff
 80009c0:	ffffffff 			; <UNDEFINED> instruction: 0xffffffff
 80009c4:	ffffffff 			; <UNDEFINED> instruction: 0xffffffff
 80009c8:	ffffffff 			; <UNDEFINED> instruction: 0xffffffff
 80009cc:	ffffffff 			; <UNDEFINED> instruction: 0xffffffff
 80009d0:	ffffffff 			; <UNDEFINED> instruction: 0xffffffff
 80009d4:	ffffffff 			; <UNDEFINED> instruction: 0xffffffff
 80009d8:	ffffffff 			; <UNDEFINED> instruction: 0xffffffff
 80009dc:	ffffffff 			; <UNDEFINED> instruction: 0xffffffff
 80009e0:	ffffffff 			; <UNDEFINED> instruction: 0xffffffff
 80009e4:	ffffffff 			; <UNDEFINED> instruction: 0xffffffff
 80009e8:	ffffffff 			; <UNDEFINED> instruction: 0xffffffff
 80009ec:	ffffffff 			; <UNDEFINED> instruction: 0xffffffff
 80009f0:	ffffffff 			; <UNDEFINED> instruction: 0xffffffff
 80009f4:	ffffffff 			; <UNDEFINED> instruction: 0xffffffff
 80009f8:	ffffffff 			; <UNDEFINED> instruction: 0xffffffff
 80009fc:	ffffffff 			; <UNDEFINED> instruction: 0xffffffff
 8000a00:	ffffffff 			; <UNDEFINED> instruction: 0xffffffff
 8000a04:	ffffffff 			; <UNDEFINED> instruction: 0xffffffff
 8000a08:	ffffffff 			; <UNDEFINED> instruction: 0xffffffff
 8000a0c:	ffffffff 			; <UNDEFINED> instruction: 0xffffffff
 8000a10:	ffffffff 			; <UNDEFINED> instruction: 0xffffffff
 8000a14:	ffffffff 			; <UNDEFINED> instruction: 0xffffffff
 8000a18:	ffffffff 			; <UNDEFINED> instruction: 0xffffffff
 8000a1c:	ffffffff 			; <UNDEFINED> instruction: 0xffffffff
 8000a20:	ffffffff 			; <UNDEFINED> instruction: 0xffffffff
 8000a24:	ffffffff 			; <UNDEFINED> instruction: 0xffffffff
 8000a28:	ffffffff 			; <UNDEFINED> instruction: 0xffffffff
 8000a2c:	ffffffff 			; <UNDEFINED> instruction: 0xffffffff
 8000a30:	ffffffff 			; <UNDEFINED> instruction: 0xffffffff
 8000a34:	ffffffff 			; <UNDEFINED> instruction: 0xffffffff
 8000a38:	ffffffff 			; <UNDEFINED> instruction: 0xffffffff
 8000a3c:	ffffffff 			; <UNDEFINED> instruction: 0xffffffff
 8000a40:	ffffffff 			; <UNDEFINED> instruction: 0xffffffff
 8000a44:	ffffffff 			; <UNDEFINED> instruction: 0xffffffff
 8000a48:	ffffffff 			; <UNDEFINED> instruction: 0xffffffff
 8000a4c:	ffffffff 			; <UNDEFINED> instruction: 0xffffffff
 8000a50:	ffffffff 			; <UNDEFINED> instruction: 0xffffffff
 8000a54:	ffffffff 			; <UNDEFINED> instruction: 0xffffffff
 8000a58:	ffffffff 			; <UNDEFINED> instruction: 0xffffffff
 8000a5c:	ffffffff 			; <UNDEFINED> instruction: 0xffffffff
 8000a60:	ffffffff 			; <UNDEFINED> instruction: 0xffffffff
 8000a64:	ffffffff 			; <UNDEFINED> instruction: 0xffffffff
 8000a68:	ffffffff 			; <UNDEFINED> instruction: 0xffffffff
 8000a6c:	ffffffff 			; <UNDEFINED> instruction: 0xffffffff
 8000a70:	ffffffff 			; <UNDEFINED> instruction: 0xffffffff
 8000a74:	ffffffff 			; <UNDEFINED> instruction: 0xffffffff
 8000a78:	ffffffff 			; <UNDEFINED> instruction: 0xffffffff
 8000a7c:	ffffffff 			; <UNDEFINED> instruction: 0xffffffff
 8000a80:	ffffffff 			; <UNDEFINED> instruction: 0xffffffff
 8000a84:	ffffffff 			; <UNDEFINED> instruction: 0xffffffff
 8000a88:	ffffffff 			; <UNDEFINED> instruction: 0xffffffff
 8000a8c:	ffffffff 			; <UNDEFINED> instruction: 0xffffffff
 8000a90:	ffffffff 			; <UNDEFINED> instruction: 0xffffffff
 8000a94:	ffffffff 			; <UNDEFINED> instruction: 0xffffffff
 8000a98:	ffffffff 			; <UNDEFINED> instruction: 0xffffffff
 8000a9c:	ffffffff 			; <UNDEFINED> instruction: 0xffffffff
 8000aa0:	ffffffff 			; <UNDEFINED> instruction: 0xffffffff
 8000aa4:	ffffffff 			; <UNDEFINED> instruction: 0xffffffff
 8000aa8:	ffffffff 			; <UNDEFINED> instruction: 0xffffffff
 8000aac:	ffffffff 			; <UNDEFINED> instruction: 0xffffffff
 8000ab0:	ffffffff 			; <UNDEFINED> instruction: 0xffffffff
 8000ab4:	ffffffff 			; <UNDEFINED> instruction: 0xffffffff
 8000ab8:	ffffffff 			; <UNDEFINED> instruction: 0xffffffff
 8000abc:	ffffffff 			; <UNDEFINED> instruction: 0xffffffff
 8000ac0:	ffffffff 			; <UNDEFINED> instruction: 0xffffffff
 8000ac4:	ffffffff 			; <UNDEFINED> instruction: 0xffffffff
 8000ac8:	ffffffff 			; <UNDEFINED> instruction: 0xffffffff
 8000acc:	ffffffff 			; <UNDEFINED> instruction: 0xffffffff
 8000ad0:	ffffffff 			; <UNDEFINED> instruction: 0xffffffff
 8000ad4:	ffffffff 			; <UNDEFINED> instruction: 0xffffffff
 8000ad8:	ffffffff 			; <UNDEFINED> instruction: 0xffffffff
 8000adc:	ffffffff 			; <UNDEFINED> instruction: 0xffffffff
 8000ae0:	ffffffff 			; <UNDEFINED> instruction: 0xffffffff
 8000ae4:	ffffffff 			; <UNDEFINED> instruction: 0xffffffff
 8000ae8:	ffffffff 			; <UNDEFINED> instruction: 0xffffffff
 8000aec:	ffffffff 			; <UNDEFINED> instruction: 0xffffffff
 8000af0:	ffffffff 			; <UNDEFINED> instruction: 0xffffffff
 8000af4:	ffffffff 			; <UNDEFINED> instruction: 0xffffffff
 8000af8:	ffffffff 			; <UNDEFINED> instruction: 0xffffffff
 8000afc:	ffffffff 			; <UNDEFINED> instruction: 0xffffffff
 8000b00:	ffffffff 			; <UNDEFINED> instruction: 0xffffffff
 8000b04:	ffffffff 			; <UNDEFINED> instruction: 0xffffffff
 8000b08:	ffffffff 			; <UNDEFINED> instruction: 0xffffffff
 8000b0c:	ffffffff 			; <UNDEFINED> instruction: 0xffffffff
 8000b10:	ffffffff 			; <UNDEFINED> instruction: 0xffffffff
 8000b14:	ffffffff 			; <UNDEFINED> instruction: 0xffffffff
 8000b18:	ffffffff 			; <UNDEFINED> instruction: 0xffffffff
 8000b1c:	ffffffff 			; <UNDEFINED> instruction: 0xffffffff
 8000b20:	ffffffff 			; <UNDEFINED> instruction: 0xffffffff
 8000b24:	ffffffff 			; <UNDEFINED> instruction: 0xffffffff
 8000b28:	ffffffff 			; <UNDEFINED> instruction: 0xffffffff
 8000b2c:	ffffffff 			; <UNDEFINED> instruction: 0xffffffff
 8000b30:	ffffffff 			; <UNDEFINED> instruction: 0xffffffff
 8000b34:	ffffffff 			; <UNDEFINED> instruction: 0xffffffff
 8000b38:	ffffffff 			; <UNDEFINED> instruction: 0xffffffff
 8000b3c:	ffffffff 			; <UNDEFINED> instruction: 0xffffffff
 8000b40:	ffffffff 			; <UNDEFINED> instruction: 0xffffffff
 8000b44:	ffffffff 			; <UNDEFINED> instruction: 0xffffffff
 8000b48:	ffffffff 			; <UNDEFINED> instruction: 0xffffffff
 8000b4c:	ffffffff 			; <UNDEFINED> instruction: 0xffffffff
 8000b50:	ffffffff 			; <UNDEFINED> instruction: 0xffffffff
 8000b54:	ffffffff 			; <UNDEFINED> instruction: 0xffffffff
 8000b58:	ffffffff 			; <UNDEFINED> instruction: 0xffffffff
 8000b5c:	ffffffff 			; <UNDEFINED> instruction: 0xffffffff
 8000b60:	ffffffff 			; <UNDEFINED> instruction: 0xffffffff
 8000b64:	ffffffff 			; <UNDEFINED> instruction: 0xffffffff
 8000b68:	ffffffff 			; <UNDEFINED> instruction: 0xffffffff
 8000b6c:	ffffffff 			; <UNDEFINED> instruction: 0xffffffff
 8000b70:	ffffffff 			; <UNDEFINED> instruction: 0xffffffff
 8000b74:	ffffffff 			; <UNDEFINED> instruction: 0xffffffff
 8000b78:	ffffffff 			; <UNDEFINED> instruction: 0xffffffff
 8000b7c:	ffffffff 			; <UNDEFINED> instruction: 0xffffffff
 8000b80:	ffffffff 			; <UNDEFINED> instruction: 0xffffffff
 8000b84:	ffffffff 			; <UNDEFINED> instruction: 0xffffffff
 8000b88:	ffffffff 			; <UNDEFINED> instruction: 0xffffffff
 8000b8c:	ffffffff 			; <UNDEFINED> instruction: 0xffffffff
 8000b90:	ffffffff 			; <UNDEFINED> instruction: 0xffffffff
 8000b94:	ffffffff 			; <UNDEFINED> instruction: 0xffffffff
 8000b98:	ffffffff 			; <UNDEFINED> instruction: 0xffffffff
 8000b9c:	ffffffff 			; <UNDEFINED> instruction: 0xffffffff
 8000ba0:	ffffffff 			; <UNDEFINED> instruction: 0xffffffff
 8000ba4:	ffffffff 			; <UNDEFINED> instruction: 0xffffffff
 8000ba8:	ffffffff 			; <UNDEFINED> instruction: 0xffffffff
 8000bac:	ffffffff 			; <UNDEFINED> instruction: 0xffffffff
 8000bb0:	ffffffff 			; <UNDEFINED> instruction: 0xffffffff
 8000bb4:	ffffffff 			; <UNDEFINED> instruction: 0xffffffff
 8000bb8:	ffffffff 			; <UNDEFINED> instruction: 0xffffffff
 8000bbc:	ffffffff 			; <UNDEFINED> instruction: 0xffffffff
 8000bc0:	ffffffff 			; <UNDEFINED> instruction: 0xffffffff
 8000bc4:	ffffffff 			; <UNDEFINED> instruction: 0xffffffff
 8000bc8:	ffffffff 			; <UNDEFINED> instruction: 0xffffffff
 8000bcc:	ffffffff 			; <UNDEFINED> instruction: 0xffffffff
 8000bd0:	ffffffff 			; <UNDEFINED> instruction: 0xffffffff
 8000bd4:	ffffffff 			; <UNDEFINED> instruction: 0xffffffff
 8000bd8:	ffffffff 			; <UNDEFINED> instruction: 0xffffffff
 8000bdc:	ffffffff 			; <UNDEFINED> instruction: 0xffffffff
 8000be0:	ffffffff 			; <UNDEFINED> instruction: 0xffffffff
 8000be4:	ffffffff 			; <UNDEFINED> instruction: 0xffffffff
 8000be8:	ffffffff 			; <UNDEFINED> instruction: 0xffffffff
 8000bec:	ffffffff 			; <UNDEFINED> instruction: 0xffffffff
 8000bf0:	ffffffff 			; <UNDEFINED> instruction: 0xffffffff
 8000bf4:	ffffffff 			; <UNDEFINED> instruction: 0xffffffff
 8000bf8:	ffffffff 			; <UNDEFINED> instruction: 0xffffffff
 8000bfc:	ffffffff 			; <UNDEFINED> instruction: 0xffffffff
 8000c00:	ffffffff 			; <UNDEFINED> instruction: 0xffffffff
 8000c04:	ffffffff 			; <UNDEFINED> instruction: 0xffffffff
 8000c08:	ffffffff 			; <UNDEFINED> instruction: 0xffffffff
 8000c0c:	ffffffff 			; <UNDEFINED> instruction: 0xffffffff
 8000c10:	ffffffff 			; <UNDEFINED> instruction: 0xffffffff
 8000c14:	ffffffff 			; <UNDEFINED> instruction: 0xffffffff
 8000c18:	ffffffff 			; <UNDEFINED> instruction: 0xffffffff
 8000c1c:	ffffffff 			; <UNDEFINED> instruction: 0xffffffff
 8000c20:	ffffffff 			; <UNDEFINED> instruction: 0xffffffff
 8000c24:	ffffffff 			; <UNDEFINED> instruction: 0xffffffff
 8000c28:	ffffffff 			; <UNDEFINED> instruction: 0xffffffff
 8000c2c:	ffffffff 			; <UNDEFINED> instruction: 0xffffffff
 8000c30:	ffffffff 			; <UNDEFINED> instruction: 0xffffffff
 8000c34:	ffffffff 			; <UNDEFINED> instruction: 0xffffffff
 8000c38:	ffffffff 			; <UNDEFINED> instruction: 0xffffffff
 8000c3c:	ffffffff 			; <UNDEFINED> instruction: 0xffffffff
 8000c40:	ffffffff 			; <UNDEFINED> instruction: 0xffffffff
 8000c44:	ffffffff 			; <UNDEFINED> instruction: 0xffffffff
 8000c48:	ffffffff 			; <UNDEFINED> instruction: 0xffffffff
 8000c4c:	ffffffff 			; <UNDEFINED> instruction: 0xffffffff
 8000c50:	ffffffff 			; <UNDEFINED> instruction: 0xffffffff
 8000c54:	ffffffff 			; <UNDEFINED> instruction: 0xffffffff
 8000c58:	ffffffff 			; <UNDEFINED> instruction: 0xffffffff
 8000c5c:	ffffffff 			; <UNDEFINED> instruction: 0xffffffff
 8000c60:	ffffffff 			; <UNDEFINED> instruction: 0xffffffff
 8000c64:	ffffffff 			; <UNDEFINED> instruction: 0xffffffff
 8000c68:	ffffffff 			; <UNDEFINED> instruction: 0xffffffff
 8000c6c:	ffffffff 			; <UNDEFINED> instruction: 0xffffffff
 8000c70:	ffffffff 			; <UNDEFINED> instruction: 0xffffffff
 8000c74:	ffffffff 			; <UNDEFINED> instruction: 0xffffffff
 8000c78:	ffffffff 			; <UNDEFINED> instruction: 0xffffffff
 8000c7c:	ffffffff 			; <UNDEFINED> instruction: 0xffffffff
 8000c80:	ffffffff 			; <UNDEFINED> instruction: 0xffffffff
 8000c84:	ffffffff 			; <UNDEFINED> instruction: 0xffffffff
 8000c88:	ffffffff 			; <UNDEFINED> instruction: 0xffffffff
 8000c8c:	ffffffff 			; <UNDEFINED> instruction: 0xffffffff
 8000c90:	ffffffff 			; <UNDEFINED> instruction: 0xffffffff
 8000c94:	ffffffff 			; <UNDEFINED> instruction: 0xffffffff
 8000c98:	ffffffff 			; <UNDEFINED> instruction: 0xffffffff
 8000c9c:	ffffffff 			; <UNDEFINED> instruction: 0xffffffff
 8000ca0:	ffffffff 			; <UNDEFINED> instruction: 0xffffffff
 8000ca4:	ffffffff 			; <UNDEFINED> instruction: 0xffffffff
 8000ca8:	ffffffff 			; <UNDEFINED> instruction: 0xffffffff
 8000cac:	ffffffff 			; <UNDEFINED> instruction: 0xffffffff
 8000cb0:	ffffffff 			; <UNDEFINED> instruction: 0xffffffff
 8000cb4:	ffffffff 			; <UNDEFINED> instruction: 0xffffffff
 8000cb8:	ffffffff 			; <UNDEFINED> instruction: 0xffffffff
 8000cbc:	ffffffff 			; <UNDEFINED> instruction: 0xffffffff
 8000cc0:	ffffffff 			; <UNDEFINED> instruction: 0xffffffff
 8000cc4:	ffffffff 			; <UNDEFINED> instruction: 0xffffffff
 8000cc8:	ffffffff 			; <UNDEFINED> instruction: 0xffffffff
 8000ccc:	ffffffff 			; <UNDEFINED> instruction: 0xffffffff
 8000cd0:	ffffffff 			; <UNDEFINED> instruction: 0xffffffff
 8000cd4:	ffffffff 			; <UNDEFINED> instruction: 0xffffffff
 8000cd8:	ffffffff 			; <UNDEFINED> instruction: 0xffffffff
 8000cdc:	ffffffff 			; <UNDEFINED> instruction: 0xffffffff
 8000ce0:	ffffffff 			; <UNDEFINED> instruction: 0xffffffff
 8000ce4:	ffffffff 			; <UNDEFINED> instruction: 0xffffffff
 8000ce8:	ffffffff 			; <UNDEFINED> instruction: 0xffffffff
 8000cec:	ffffffff 			; <UNDEFINED> instruction: 0xffffffff
 8000cf0:	ffffffff 			; <UNDEFINED> instruction: 0xffffffff
 8000cf4:	ffffffff 			; <UNDEFINED> instruction: 0xffffffff
 8000cf8:	ffffffff 			; <UNDEFINED> instruction: 0xffffffff
 8000cfc:	ffffffff 			; <UNDEFINED> instruction: 0xffffffff
 8000d00:	ffffffff 			; <UNDEFINED> instruction: 0xffffffff
 8000d04:	ffffffff 			; <UNDEFINED> instruction: 0xffffffff
 8000d08:	ffffffff 			; <UNDEFINED> instruction: 0xffffffff
 8000d0c:	ffffffff 			; <UNDEFINED> instruction: 0xffffffff
 8000d10:	ffffffff 			; <UNDEFINED> instruction: 0xffffffff
 8000d14:	ffffffff 			; <UNDEFINED> instruction: 0xffffffff
 8000d18:	ffffffff 			; <UNDEFINED> instruction: 0xffffffff
 8000d1c:	ffffffff 			; <UNDEFINED> instruction: 0xffffffff
 8000d20:	ffffffff 			; <UNDEFINED> instruction: 0xffffffff
 8000d24:	ffffffff 			; <UNDEFINED> instruction: 0xffffffff
 8000d28:	ffffffff 			; <UNDEFINED> instruction: 0xffffffff
 8000d2c:	ffffffff 			; <UNDEFINED> instruction: 0xffffffff
 8000d30:	ffffffff 			; <UNDEFINED> instruction: 0xffffffff
 8000d34:	ffffffff 			; <UNDEFINED> instruction: 0xffffffff
 8000d38:	ffffffff 			; <UNDEFINED> instruction: 0xffffffff
 8000d3c:	ffffffff 			; <UNDEFINED> instruction: 0xffffffff
 8000d40:	ffffffff 			; <UNDEFINED> instruction: 0xffffffff
 8000d44:	ffffffff 			; <UNDEFINED> instruction: 0xffffffff
 8000d48:	ffffffff 			; <UNDEFINED> instruction: 0xffffffff
 8000d4c:	ffffffff 			; <UNDEFINED> instruction: 0xffffffff
 8000d50:	ffffffff 			; <UNDEFINED> instruction: 0xffffffff
 8000d54:	ffffffff 			; <UNDEFINED> instruction: 0xffffffff
 8000d58:	ffffffff 			; <UNDEFINED> instruction: 0xffffffff
 8000d5c:	ffffffff 			; <UNDEFINED> instruction: 0xffffffff
 8000d60:	ffffffff 			; <UNDEFINED> instruction: 0xffffffff
 8000d64:	ffffffff 			; <UNDEFINED> instruction: 0xffffffff
 8000d68:	ffffffff 			; <UNDEFINED> instruction: 0xffffffff
 8000d6c:	ffffffff 			; <UNDEFINED> instruction: 0xffffffff
 8000d70:	ffffffff 			; <UNDEFINED> instruction: 0xffffffff
 8000d74:	ffffffff 			; <UNDEFINED> instruction: 0xffffffff
 8000d78:	ffffffff 			; <UNDEFINED> instruction: 0xffffffff
 8000d7c:	ffffffff 			; <UNDEFINED> instruction: 0xffffffff
 8000d80:	ffffffff 			; <UNDEFINED> instruction: 0xffffffff
 8000d84:	ffffffff 			; <UNDEFINED> instruction: 0xffffffff
 8000d88:	ffffffff 			; <UNDEFINED> instruction: 0xffffffff
 8000d8c:	ffffffff 			; <UNDEFINED> instruction: 0xffffffff
 8000d90:	ffffffff 			; <UNDEFINED> instruction: 0xffffffff
 8000d94:	ffffffff 			; <UNDEFINED> instruction: 0xffffffff
 8000d98:	ffffffff 			; <UNDEFINED> instruction: 0xffffffff
 8000d9c:	ffffffff 			; <UNDEFINED> instruction: 0xffffffff
 8000da0:	ffffffff 			; <UNDEFINED> instruction: 0xffffffff
 8000da4:	ffffffff 			; <UNDEFINED> instruction: 0xffffffff
 8000da8:	ffffffff 			; <UNDEFINED> instruction: 0xffffffff
 8000dac:	ffffffff 			; <UNDEFINED> instruction: 0xffffffff
 8000db0:	ffffffff 			; <UNDEFINED> instruction: 0xffffffff
 8000db4:	ffffffff 			; <UNDEFINED> instruction: 0xffffffff
 8000db8:	ffffffff 			; <UNDEFINED> instruction: 0xffffffff
 8000dbc:	ffffffff 			; <UNDEFINED> instruction: 0xffffffff
 8000dc0:	ffffffff 			; <UNDEFINED> instruction: 0xffffffff
 8000dc4:	ffffffff 			; <UNDEFINED> instruction: 0xffffffff
 8000dc8:	ffffffff 			; <UNDEFINED> instruction: 0xffffffff
 8000dcc:	ffffffff 			; <UNDEFINED> instruction: 0xffffffff
 8000dd0:	ffffffff 			; <UNDEFINED> instruction: 0xffffffff
 8000dd4:	ffffffff 			; <UNDEFINED> instruction: 0xffffffff
 8000dd8:	ffffffff 			; <UNDEFINED> instruction: 0xffffffff
 8000ddc:	ffffffff 			; <UNDEFINED> instruction: 0xffffffff
 8000de0:	ffffffff 			; <UNDEFINED> instruction: 0xffffffff
 8000de4:	ffffffff 			; <UNDEFINED> instruction: 0xffffffff
 8000de8:	ffffffff 			; <UNDEFINED> instruction: 0xffffffff
 8000dec:	ffffffff 			; <UNDEFINED> instruction: 0xffffffff
 8000df0:	ffffffff 			; <UNDEFINED> instruction: 0xffffffff
 8000df4:	ffffffff 			; <UNDEFINED> instruction: 0xffffffff
 8000df8:	ffffffff 			; <UNDEFINED> instruction: 0xffffffff
 8000dfc:	ffffffff 			; <UNDEFINED> instruction: 0xffffffff
 8000e00:	ffffffff 			; <UNDEFINED> instruction: 0xffffffff
 8000e04:	ffffffff 			; <UNDEFINED> instruction: 0xffffffff
 8000e08:	ffffffff 			; <UNDEFINED> instruction: 0xffffffff
 8000e0c:	ffffffff 			; <UNDEFINED> instruction: 0xffffffff
 8000e10:	ffffffff 			; <UNDEFINED> instruction: 0xffffffff
 8000e14:	ffffffff 			; <UNDEFINED> instruction: 0xffffffff
 8000e18:	ffffffff 			; <UNDEFINED> instruction: 0xffffffff
 8000e1c:	ffffffff 			; <UNDEFINED> instruction: 0xffffffff
 8000e20:	ffffffff 			; <UNDEFINED> instruction: 0xffffffff
 8000e24:	ffffffff 			; <UNDEFINED> instruction: 0xffffffff
 8000e28:	ffffffff 			; <UNDEFINED> instruction: 0xffffffff
 8000e2c:	ffffffff 			; <UNDEFINED> instruction: 0xffffffff
 8000e30:	ffffffff 			; <UNDEFINED> instruction: 0xffffffff
 8000e34:	ffffffff 			; <UNDEFINED> instruction: 0xffffffff
 8000e38:	ffffffff 			; <UNDEFINED> instruction: 0xffffffff
 8000e3c:	ffffffff 			; <UNDEFINED> instruction: 0xffffffff
 8000e40:	ffffffff 			; <UNDEFINED> instruction: 0xffffffff
 8000e44:	ffffffff 			; <UNDEFINED> instruction: 0xffffffff
 8000e48:	ffffffff 			; <UNDEFINED> instruction: 0xffffffff
 8000e4c:	ffffffff 			; <UNDEFINED> instruction: 0xffffffff
 8000e50:	ffffffff 			; <UNDEFINED> instruction: 0xffffffff
 8000e54:	ffffffff 			; <UNDEFINED> instruction: 0xffffffff
 8000e58:	ffffffff 			; <UNDEFINED> instruction: 0xffffffff
 8000e5c:	ffffffff 			; <UNDEFINED> instruction: 0xffffffff
 8000e60:	ffffffff 			; <UNDEFINED> instruction: 0xffffffff
 8000e64:	ffffffff 			; <UNDEFINED> instruction: 0xffffffff
 8000e68:	ffffffff 			; <UNDEFINED> instruction: 0xffffffff
 8000e6c:	ffffffff 			; <UNDEFINED> instruction: 0xffffffff
 8000e70:	ffffffff 			; <UNDEFINED> instruction: 0xffffffff
 8000e74:	ffffffff 			; <UNDEFINED> instruction: 0xffffffff
 8000e78:	ffffffff 			; <UNDEFINED> instruction: 0xffffffff
 8000e7c:	ffffffff 			; <UNDEFINED> instruction: 0xffffffff
 8000e80:	ffffffff 			; <UNDEFINED> instruction: 0xffffffff
 8000e84:	ffffffff 			; <UNDEFINED> instruction: 0xffffffff
 8000e88:	ffffffff 			; <UNDEFINED> instruction: 0xffffffff
 8000e8c:	ffffffff 			; <UNDEFINED> instruction: 0xffffffff
 8000e90:	ffffffff 			; <UNDEFINED> instruction: 0xffffffff
 8000e94:	ffffffff 			; <UNDEFINED> instruction: 0xffffffff
 8000e98:	ffffffff 			; <UNDEFINED> instruction: 0xffffffff
 8000e9c:	ffffffff 			; <UNDEFINED> instruction: 0xffffffff
 8000ea0:	ffffffff 			; <UNDEFINED> instruction: 0xffffffff
 8000ea4:	ffffffff 			; <UNDEFINED> instruction: 0xffffffff
 8000ea8:	ffffffff 			; <UNDEFINED> instruction: 0xffffffff
 8000eac:	ffffffff 			; <UNDEFINED> instruction: 0xffffffff
 8000eb0:	ffffffff 			; <UNDEFINED> instruction: 0xffffffff
 8000eb4:	ffffffff 			; <UNDEFINED> instruction: 0xffffffff
 8000eb8:	ffffffff 			; <UNDEFINED> instruction: 0xffffffff
 8000ebc:	ffffffff 			; <UNDEFINED> instruction: 0xffffffff
 8000ec0:	ffffffff 			; <UNDEFINED> instruction: 0xffffffff
 8000ec4:	ffffffff 			; <UNDEFINED> instruction: 0xffffffff
 8000ec8:	ffffffff 			; <UNDEFINED> instruction: 0xffffffff
 8000ecc:	ffffffff 			; <UNDEFINED> instruction: 0xffffffff
 8000ed0:	ffffffff 			; <UNDEFINED> instruction: 0xffffffff
 8000ed4:	ffffffff 			; <UNDEFINED> instruction: 0xffffffff
 8000ed8:	ffffffff 			; <UNDEFINED> instruction: 0xffffffff
 8000edc:	ffffffff 			; <UNDEFINED> instruction: 0xffffffff
 8000ee0:	ffffffff 			; <UNDEFINED> instruction: 0xffffffff
 8000ee4:	ffffffff 			; <UNDEFINED> instruction: 0xffffffff
 8000ee8:	ffffffff 			; <UNDEFINED> instruction: 0xffffffff
 8000eec:	ffffffff 			; <UNDEFINED> instruction: 0xffffffff
 8000ef0:	ffffffff 			; <UNDEFINED> instruction: 0xffffffff
 8000ef4:	ffffffff 			; <UNDEFINED> instruction: 0xffffffff
 8000ef8:	ffffffff 			; <UNDEFINED> instruction: 0xffffffff
 8000efc:	ffffffff 			; <UNDEFINED> instruction: 0xffffffff
 8000f00:	ffffffff 			; <UNDEFINED> instruction: 0xffffffff
 8000f04:	ffffffff 			; <UNDEFINED> instruction: 0xffffffff
 8000f08:	ffffffff 			; <UNDEFINED> instruction: 0xffffffff
 8000f0c:	ffffffff 			; <UNDEFINED> instruction: 0xffffffff
 8000f10:	ffffffff 			; <UNDEFINED> instruction: 0xffffffff
 8000f14:	ffffffff 			; <UNDEFINED> instruction: 0xffffffff
 8000f18:	ffffffff 			; <UNDEFINED> instruction: 0xffffffff
 8000f1c:	ffffffff 			; <UNDEFINED> instruction: 0xffffffff
 8000f20:	ffffffff 			; <UNDEFINED> instruction: 0xffffffff
 8000f24:	ffffffff 			; <UNDEFINED> instruction: 0xffffffff
 8000f28:	ffffffff 			; <UNDEFINED> instruction: 0xffffffff
 8000f2c:	ffffffff 			; <UNDEFINED> instruction: 0xffffffff
 8000f30:	ffffffff 			; <UNDEFINED> instruction: 0xffffffff
 8000f34:	ffffffff 			; <UNDEFINED> instruction: 0xffffffff
 8000f38:	ffffffff 			; <UNDEFINED> instruction: 0xffffffff
 8000f3c:	ffffffff 			; <UNDEFINED> instruction: 0xffffffff
 8000f40:	ffffffff 			; <UNDEFINED> instruction: 0xffffffff
 8000f44:	ffffffff 			; <UNDEFINED> instruction: 0xffffffff
 8000f48:	ffffffff 			; <UNDEFINED> instruction: 0xffffffff
 8000f4c:	ffffffff 			; <UNDEFINED> instruction: 0xffffffff
 8000f50:	ffffffff 			; <UNDEFINED> instruction: 0xffffffff
 8000f54:	ffffffff 			; <UNDEFINED> instruction: 0xffffffff
 8000f58:	ffffffff 			; <UNDEFINED> instruction: 0xffffffff
 8000f5c:	ffffffff 			; <UNDEFINED> instruction: 0xffffffff
 8000f60:	ffffffff 			; <UNDEFINED> instruction: 0xffffffff
 8000f64:	ffffffff 			; <UNDEFINED> instruction: 0xffffffff
 8000f68:	ffffffff 			; <UNDEFINED> instruction: 0xffffffff
 8000f6c:	ffffffff 			; <UNDEFINED> instruction: 0xffffffff
 8000f70:	ffffffff 			; <UNDEFINED> instruction: 0xffffffff
 8000f74:	ffffffff 			; <UNDEFINED> instruction: 0xffffffff
 8000f78:	ffffffff 			; <UNDEFINED> instruction: 0xffffffff
 8000f7c:	ffffffff 			; <UNDEFINED> instruction: 0xffffffff
 8000f80:	ffffffff 			; <UNDEFINED> instruction: 0xffffffff
 8000f84:	ffffffff 			; <UNDEFINED> instruction: 0xffffffff
 8000f88:	ffffffff 			; <UNDEFINED> instruction: 0xffffffff
 8000f8c:	ffffffff 			; <UNDEFINED> instruction: 0xffffffff
 8000f90:	ffffffff 			; <UNDEFINED> instruction: 0xffffffff
 8000f94:	ffffffff 			; <UNDEFINED> instruction: 0xffffffff
 8000f98:	ffffffff 			; <UNDEFINED> instruction: 0xffffffff
 8000f9c:	ffffffff 			; <UNDEFINED> instruction: 0xffffffff
 8000fa0:	ffffffff 			; <UNDEFINED> instruction: 0xffffffff
 8000fa4:	ffffffff 			; <UNDEFINED> instruction: 0xffffffff
 8000fa8:	ffffffff 			; <UNDEFINED> instruction: 0xffffffff
 8000fac:	ffffffff 			; <UNDEFINED> instruction: 0xffffffff
 8000fb0:	ffffffff 			; <UNDEFINED> instruction: 0xffffffff
 8000fb4:	ffffffff 			; <UNDEFINED> instruction: 0xffffffff
 8000fb8:	ffffffff 			; <UNDEFINED> instruction: 0xffffffff
 8000fbc:	ffffffff 			; <UNDEFINED> instruction: 0xffffffff
 8000fc0:	ffffffff 			; <UNDEFINED> instruction: 0xffffffff
 8000fc4:	ffffffff 			; <UNDEFINED> instruction: 0xffffffff
 8000fc8:	ffffffff 			; <UNDEFINED> instruction: 0xffffffff
 8000fcc:	ffffffff 			; <UNDEFINED> instruction: 0xffffffff
 8000fd0:	ffffffff 			; <UNDEFINED> instruction: 0xffffffff
 8000fd4:	ffffffff 			; <UNDEFINED> instruction: 0xffffffff
 8000fd8:	ffffffff 			; <UNDEFINED> instruction: 0xffffffff
 8000fdc:	ffffffff 			; <UNDEFINED> instruction: 0xffffffff
 8000fe0:	ffffffff 			; <UNDEFINED> instruction: 0xffffffff
 8000fe4:	ffffffff 			; <UNDEFINED> instruction: 0xffffffff
 8000fe8:	ffffffff 			; <UNDEFINED> instruction: 0xffffffff
 8000fec:	ffffffff 			; <UNDEFINED> instruction: 0xffffffff
 8000ff0:	ffffffff 			; <UNDEFINED> instruction: 0xffffffff
 8000ff4:	ffffffff 			; <UNDEFINED> instruction: 0xffffffff
 8000ff8:	ffffffff 			; <UNDEFINED> instruction: 0xffffffff
 8000ffc:	ffffffff 			; <UNDEFINED> instruction: 0xffffffff
 8001000:	ffffffff 			; <UNDEFINED> instruction: 0xffffffff
 8001004:	ffffffff 			; <UNDEFINED> instruction: 0xffffffff
 8001008:	ffffffff 			; <UNDEFINED> instruction: 0xffffffff
 800100c:	ffffffff 			; <UNDEFINED> instruction: 0xffffffff
 8001010:	ffffffff 			; <UNDEFINED> instruction: 0xffffffff
 8001014:	ffffffff 			; <UNDEFINED> instruction: 0xffffffff
 8001018:	ffffffff 			; <UNDEFINED> instruction: 0xffffffff
 800101c:	ffffffff 			; <UNDEFINED> instruction: 0xffffffff
 8001020:	ffffffff 			; <UNDEFINED> instruction: 0xffffffff
 8001024:	ffffffff 			; <UNDEFINED> instruction: 0xffffffff
 8001028:	ffffffff 			; <UNDEFINED> instruction: 0xffffffff
 800102c:	ffffffff 			; <UNDEFINED> instruction: 0xffffffff
 8001030:	ffffffff 			; <UNDEFINED> instruction: 0xffffffff
 8001034:	ffffffff 			; <UNDEFINED> instruction: 0xffffffff
 8001038:	ffffffff 			; <UNDEFINED> instruction: 0xffffffff
 800103c:	ffffffff 			; <UNDEFINED> instruction: 0xffffffff
 8001040:	ffffffff 			; <UNDEFINED> instruction: 0xffffffff
 8001044:	ffffffff 			; <UNDEFINED> instruction: 0xffffffff
 8001048:	ffffffff 			; <UNDEFINED> instruction: 0xffffffff
 800104c:	ffffffff 			; <UNDEFINED> instruction: 0xffffffff
 8001050:	ffffffff 			; <UNDEFINED> instruction: 0xffffffff
 8001054:	ffffffff 			; <UNDEFINED> instruction: 0xffffffff
 8001058:	ffffffff 			; <UNDEFINED> instruction: 0xffffffff
 800105c:	ffffffff 			; <UNDEFINED> instruction: 0xffffffff
 8001060:	ffffffff 			; <UNDEFINED> instruction: 0xffffffff
 8001064:	ffffffff 			; <UNDEFINED> instruction: 0xffffffff
 8001068:	ffffffff 			; <UNDEFINED> instruction: 0xffffffff
 800106c:	ffffffff 			; <UNDEFINED> instruction: 0xffffffff
 8001070:	ffffffff 			; <UNDEFINED> instruction: 0xffffffff
 8001074:	ffffffff 			; <UNDEFINED> instruction: 0xffffffff
 8001078:	ffffffff 			; <UNDEFINED> instruction: 0xffffffff
 800107c:	ffffffff 			; <UNDEFINED> instruction: 0xffffffff
 8001080:	ffffffff 			; <UNDEFINED> instruction: 0xffffffff
 8001084:	ffffffff 			; <UNDEFINED> instruction: 0xffffffff
 8001088:	ffffffff 			; <UNDEFINED> instruction: 0xffffffff
 800108c:	ffffffff 			; <UNDEFINED> instruction: 0xffffffff
 8001090:	ffffffff 			; <UNDEFINED> instruction: 0xffffffff
 8001094:	ffffffff 			; <UNDEFINED> instruction: 0xffffffff
 8001098:	ffffffff 			; <UNDEFINED> instruction: 0xffffffff
 800109c:	ffffffff 			; <UNDEFINED> instruction: 0xffffffff
 80010a0:	ffffffff 			; <UNDEFINED> instruction: 0xffffffff
 80010a4:	ffffffff 			; <UNDEFINED> instruction: 0xffffffff
 80010a8:	ffffffff 			; <UNDEFINED> instruction: 0xffffffff
 80010ac:	ffffffff 			; <UNDEFINED> instruction: 0xffffffff
 80010b0:	ffffffff 			; <UNDEFINED> instruction: 0xffffffff
 80010b4:	ffffffff 			; <UNDEFINED> instruction: 0xffffffff
 80010b8:	ffffffff 			; <UNDEFINED> instruction: 0xffffffff
 80010bc:	ffffffff 			; <UNDEFINED> instruction: 0xffffffff
 80010c0:	ffffffff 			; <UNDEFINED> instruction: 0xffffffff
 80010c4:	ffffffff 			; <UNDEFINED> instruction: 0xffffffff
 80010c8:	ffffffff 			; <UNDEFINED> instruction: 0xffffffff
 80010cc:	ffffffff 			; <UNDEFINED> instruction: 0xffffffff
 80010d0:	ffffffff 			; <UNDEFINED> instruction: 0xffffffff
 80010d4:	ffffffff 			; <UNDEFINED> instruction: 0xffffffff
 80010d8:	ffffffff 			; <UNDEFINED> instruction: 0xffffffff
 80010dc:	ffffffff 			; <UNDEFINED> instruction: 0xffffffff
 80010e0:	ffffffff 			; <UNDEFINED> instruction: 0xffffffff
 80010e4:	ffffffff 			; <UNDEFINED> instruction: 0xffffffff
 80010e8:	ffffffff 			; <UNDEFINED> instruction: 0xffffffff
 80010ec:	ffffffff 			; <UNDEFINED> instruction: 0xffffffff
 80010f0:	ffffffff 			; <UNDEFINED> instruction: 0xffffffff
 80010f4:	ffffffff 			; <UNDEFINED> instruction: 0xffffffff
 80010f8:	ffffffff 			; <UNDEFINED> instruction: 0xffffffff
 80010fc:	ffffffff 			; <UNDEFINED> instruction: 0xffffffff
 8001100:	ffffffff 			; <UNDEFINED> instruction: 0xffffffff
 8001104:	ffffffff 			; <UNDEFINED> instruction: 0xffffffff
 8001108:	ffffffff 			; <UNDEFINED> instruction: 0xffffffff
 800110c:	ffffffff 			; <UNDEFINED> instruction: 0xffffffff
 8001110:	ffffffff 			; <UNDEFINED> instruction: 0xffffffff
 8001114:	ffffffff 			; <UNDEFINED> instruction: 0xffffffff
 8001118:	ffffffff 			; <UNDEFINED> instruction: 0xffffffff
 800111c:	ffffffff 			; <UNDEFINED> instruction: 0xffffffff
 8001120:	ffffffff 			; <UNDEFINED> instruction: 0xffffffff
 8001124:	ffffffff 			; <UNDEFINED> instruction: 0xffffffff
 8001128:	ffffffff 			; <UNDEFINED> instruction: 0xffffffff
 800112c:	ffffffff 			; <UNDEFINED> instruction: 0xffffffff
 8001130:	ffffffff 			; <UNDEFINED> instruction: 0xffffffff
 8001134:	ffffffff 			; <UNDEFINED> instruction: 0xffffffff
 8001138:	ffffffff 			; <UNDEFINED> instruction: 0xffffffff
 800113c:	ffffffff 			; <UNDEFINED> instruction: 0xffffffff
 8001140:	ffffffff 			; <UNDEFINED> instruction: 0xffffffff
 8001144:	ffffffff 			; <UNDEFINED> instruction: 0xffffffff
 8001148:	ffffffff 			; <UNDEFINED> instruction: 0xffffffff
 800114c:	ffffffff 			; <UNDEFINED> instruction: 0xffffffff
 8001150:	ffffffff 			; <UNDEFINED> instruction: 0xffffffff
 8001154:	ffffffff 			; <UNDEFINED> instruction: 0xffffffff
 8001158:	ffffffff 			; <UNDEFINED> instruction: 0xffffffff
 800115c:	ffffffff 			; <UNDEFINED> instruction: 0xffffffff
 8001160:	ffffffff 			; <UNDEFINED> instruction: 0xffffffff
 8001164:	ffffffff 			; <UNDEFINED> instruction: 0xffffffff
 8001168:	ffffffff 			; <UNDEFINED> instruction: 0xffffffff
 800116c:	ffffffff 			; <UNDEFINED> instruction: 0xffffffff
 8001170:	ffffffff 			; <UNDEFINED> instruction: 0xffffffff
 8001174:	ffffffff 			; <UNDEFINED> instruction: 0xffffffff
 8001178:	ffffffff 			; <UNDEFINED> instruction: 0xffffffff
 800117c:	ffffffff 			; <UNDEFINED> instruction: 0xffffffff
 8001180:	ffffffff 			; <UNDEFINED> instruction: 0xffffffff
 8001184:	ffffffff 			; <UNDEFINED> instruction: 0xffffffff
 8001188:	ffffffff 			; <UNDEFINED> instruction: 0xffffffff
 800118c:	ffffffff 			; <UNDEFINED> instruction: 0xffffffff
 8001190:	ffffffff 			; <UNDEFINED> instruction: 0xffffffff
 8001194:	ffffffff 			; <UNDEFINED> instruction: 0xffffffff
 8001198:	ffffffff 			; <UNDEFINED> instruction: 0xffffffff
 800119c:	ffffffff 			; <UNDEFINED> instruction: 0xffffffff
 80011a0:	ffffffff 			; <UNDEFINED> instruction: 0xffffffff
 80011a4:	ffffffff 			; <UNDEFINED> instruction: 0xffffffff
 80011a8:	ffffffff 			; <UNDEFINED> instruction: 0xffffffff
 80011ac:	ffffffff 			; <UNDEFINED> instruction: 0xffffffff
 80011b0:	ffffffff 			; <UNDEFINED> instruction: 0xffffffff
 80011b4:	ffffffff 			; <UNDEFINED> instruction: 0xffffffff
 80011b8:	ffffffff 			; <UNDEFINED> instruction: 0xffffffff
 80011bc:	ffffffff 			; <UNDEFINED> instruction: 0xffffffff
 80011c0:	ffffffff 			; <UNDEFINED> instruction: 0xffffffff
 80011c4:	ffffffff 			; <UNDEFINED> instruction: 0xffffffff
 80011c8:	ffffffff 			; <UNDEFINED> instruction: 0xffffffff
 80011cc:	ffffffff 			; <UNDEFINED> instruction: 0xffffffff
 80011d0:	ffffffff 			; <UNDEFINED> instruction: 0xffffffff
 80011d4:	ffffffff 			; <UNDEFINED> instruction: 0xffffffff
 80011d8:	ffffffff 			; <UNDEFINED> instruction: 0xffffffff
 80011dc:	ffffffff 			; <UNDEFINED> instruction: 0xffffffff
 80011e0:	ffffffff 			; <UNDEFINED> instruction: 0xffffffff
 80011e4:	ffffffff 			; <UNDEFINED> instruction: 0xffffffff
 80011e8:	ffffffff 			; <UNDEFINED> instruction: 0xffffffff
 80011ec:	ffffffff 			; <UNDEFINED> instruction: 0xffffffff
 80011f0:	ffffffff 			; <UNDEFINED> instruction: 0xffffffff
 80011f4:	ffffffff 			; <UNDEFINED> instruction: 0xffffffff
 80011f8:	ffffffff 			; <UNDEFINED> instruction: 0xffffffff
 80011fc:	ffffffff 			; <UNDEFINED> instruction: 0xffffffff
 8001200:	ffffffff 			; <UNDEFINED> instruction: 0xffffffff
 8001204:	ffffffff 			; <UNDEFINED> instruction: 0xffffffff
 8001208:	ffffffff 			; <UNDEFINED> instruction: 0xffffffff
 800120c:	ffffffff 			; <UNDEFINED> instruction: 0xffffffff
 8001210:	ffffffff 			; <UNDEFINED> instruction: 0xffffffff
 8001214:	ffffffff 			; <UNDEFINED> instruction: 0xffffffff
 8001218:	ffffffff 			; <UNDEFINED> instruction: 0xffffffff
 800121c:	ffffffff 			; <UNDEFINED> instruction: 0xffffffff
 8001220:	ffffffff 			; <UNDEFINED> instruction: 0xffffffff
 8001224:	ffffffff 			; <UNDEFINED> instruction: 0xffffffff
 8001228:	ffffffff 			; <UNDEFINED> instruction: 0xffffffff
 800122c:	ffffffff 			; <UNDEFINED> instruction: 0xffffffff
 8001230:	ffffffff 			; <UNDEFINED> instruction: 0xffffffff
 8001234:	ffffffff 			; <UNDEFINED> instruction: 0xffffffff
 8001238:	ffffffff 			; <UNDEFINED> instruction: 0xffffffff
 800123c:	ffffffff 			; <UNDEFINED> instruction: 0xffffffff
 8001240:	ffffffff 			; <UNDEFINED> instruction: 0xffffffff
 8001244:	ffffffff 			; <UNDEFINED> instruction: 0xffffffff
 8001248:	ffffffff 			; <UNDEFINED> instruction: 0xffffffff
 800124c:	ffffffff 			; <UNDEFINED> instruction: 0xffffffff
 8001250:	ffffffff 			; <UNDEFINED> instruction: 0xffffffff
 8001254:	ffffffff 			; <UNDEFINED> instruction: 0xffffffff
 8001258:	ffffffff 			; <UNDEFINED> instruction: 0xffffffff
 800125c:	ffffffff 			; <UNDEFINED> instruction: 0xffffffff
 8001260:	ffffffff 			; <UNDEFINED> instruction: 0xffffffff
 8001264:	ffffffff 			; <UNDEFINED> instruction: 0xffffffff
 8001268:	ffffffff 			; <UNDEFINED> instruction: 0xffffffff
 800126c:	ffffffff 			; <UNDEFINED> instruction: 0xffffffff
 8001270:	ffffffff 			; <UNDEFINED> instruction: 0xffffffff
 8001274:	ffffffff 			; <UNDEFINED> instruction: 0xffffffff
 8001278:	ffffffff 			; <UNDEFINED> instruction: 0xffffffff
 800127c:	ffffffff 			; <UNDEFINED> instruction: 0xffffffff
 8001280:	ffffffff 			; <UNDEFINED> instruction: 0xffffffff
 8001284:	ffffffff 			; <UNDEFINED> instruction: 0xffffffff
 8001288:	ffffffff 			; <UNDEFINED> instruction: 0xffffffff
 800128c:	ffffffff 			; <UNDEFINED> instruction: 0xffffffff
 8001290:	ffffffff 			; <UNDEFINED> instruction: 0xffffffff
 8001294:	ffffffff 			; <UNDEFINED> instruction: 0xffffffff
 8001298:	ffffffff 			; <UNDEFINED> instruction: 0xffffffff
 800129c:	ffffffff 			; <UNDEFINED> instruction: 0xffffffff
 80012a0:	ffffffff 			; <UNDEFINED> instruction: 0xffffffff
 80012a4:	ffffffff 			; <UNDEFINED> instruction: 0xffffffff
 80012a8:	ffffffff 			; <UNDEFINED> instruction: 0xffffffff
 80012ac:	ffffffff 			; <UNDEFINED> instruction: 0xffffffff
 80012b0:	ffffffff 			; <UNDEFINED> instruction: 0xffffffff
 80012b4:	ffffffff 			; <UNDEFINED> instruction: 0xffffffff
 80012b8:	ffffffff 			; <UNDEFINED> instruction: 0xffffffff
 80012bc:	ffffffff 			; <UNDEFINED> instruction: 0xffffffff
 80012c0:	ffffffff 			; <UNDEFINED> instruction: 0xffffffff
 80012c4:	ffffffff 			; <UNDEFINED> instruction: 0xffffffff
 80012c8:	ffffffff 			; <UNDEFINED> instruction: 0xffffffff
 80012cc:	ffffffff 			; <UNDEFINED> instruction: 0xffffffff
 80012d0:	ffffffff 			; <UNDEFINED> instruction: 0xffffffff
 80012d4:	ffffffff 			; <UNDEFINED> instruction: 0xffffffff
 80012d8:	ffffffff 			; <UNDEFINED> instruction: 0xffffffff
 80012dc:	ffffffff 			; <UNDEFINED> instruction: 0xffffffff
 80012e0:	ffffffff 			; <UNDEFINED> instruction: 0xffffffff
 80012e4:	ffffffff 			; <UNDEFINED> instruction: 0xffffffff
 80012e8:	ffffffff 			; <UNDEFINED> instruction: 0xffffffff
 80012ec:	ffffffff 			; <UNDEFINED> instruction: 0xffffffff
 80012f0:	ffffffff 			; <UNDEFINED> instruction: 0xffffffff
 80012f4:	ffffffff 			; <UNDEFINED> instruction: 0xffffffff
 80012f8:	ffffffff 			; <UNDEFINED> instruction: 0xffffffff
 80012fc:	ffffffff 			; <UNDEFINED> instruction: 0xffffffff
 8001300:	ffffffff 			; <UNDEFINED> instruction: 0xffffffff
 8001304:	ffffffff 			; <UNDEFINED> instruction: 0xffffffff
 8001308:	ffffffff 			; <UNDEFINED> instruction: 0xffffffff
 800130c:	ffffffff 			; <UNDEFINED> instruction: 0xffffffff
 8001310:	ffffffff 			; <UNDEFINED> instruction: 0xffffffff
 8001314:	ffffffff 			; <UNDEFINED> instruction: 0xffffffff
 8001318:	ffffffff 			; <UNDEFINED> instruction: 0xffffffff
 800131c:	ffffffff 			; <UNDEFINED> instruction: 0xffffffff
 8001320:	ffffffff 			; <UNDEFINED> instruction: 0xffffffff
 8001324:	ffffffff 			; <UNDEFINED> instruction: 0xffffffff
 8001328:	ffffffff 			; <UNDEFINED> instruction: 0xffffffff
 800132c:	ffffffff 			; <UNDEFINED> instruction: 0xffffffff
 8001330:	ffffffff 			; <UNDEFINED> instruction: 0xffffffff
 8001334:	ffffffff 			; <UNDEFINED> instruction: 0xffffffff
 8001338:	ffffffff 			; <UNDEFINED> instruction: 0xffffffff
 800133c:	ffffffff 			; <UNDEFINED> instruction: 0xffffffff
 8001340:	ffffffff 			; <UNDEFINED> instruction: 0xffffffff
 8001344:	ffffffff 			; <UNDEFINED> instruction: 0xffffffff
 8001348:	ffffffff 			; <UNDEFINED> instruction: 0xffffffff
 800134c:	ffffffff 			; <UNDEFINED> instruction: 0xffffffff
 8001350:	ffffffff 			; <UNDEFINED> instruction: 0xffffffff
 8001354:	ffffffff 			; <UNDEFINED> instruction: 0xffffffff
 8001358:	ffffffff 			; <UNDEFINED> instruction: 0xffffffff
 800135c:	ffffffff 			; <UNDEFINED> instruction: 0xffffffff
 8001360:	ffffffff 			; <UNDEFINED> instruction: 0xffffffff
 8001364:	ffffffff 			; <UNDEFINED> instruction: 0xffffffff
 8001368:	ffffffff 			; <UNDEFINED> instruction: 0xffffffff
 800136c:	ffffffff 			; <UNDEFINED> instruction: 0xffffffff
 8001370:	ffffffff 			; <UNDEFINED> instruction: 0xffffffff
 8001374:	ffffffff 			; <UNDEFINED> instruction: 0xffffffff
 8001378:	ffffffff 			; <UNDEFINED> instruction: 0xffffffff
 800137c:	ffffffff 			; <UNDEFINED> instruction: 0xffffffff
 8001380:	ffffffff 			; <UNDEFINED> instruction: 0xffffffff
 8001384:	ffffffff 			; <UNDEFINED> instruction: 0xffffffff
 8001388:	ffffffff 			; <UNDEFINED> instruction: 0xffffffff
 800138c:	ffffffff 			; <UNDEFINED> instruction: 0xffffffff
 8001390:	ffffffff 			; <UNDEFINED> instruction: 0xffffffff
 8001394:	ffffffff 			; <UNDEFINED> instruction: 0xffffffff
 8001398:	ffffffff 			; <UNDEFINED> instruction: 0xffffffff
 800139c:	ffffffff 			; <UNDEFINED> instruction: 0xffffffff
 80013a0:	ffffffff 			; <UNDEFINED> instruction: 0xffffffff
 80013a4:	ffffffff 			; <UNDEFINED> instruction: 0xffffffff
 80013a8:	ffffffff 			; <UNDEFINED> instruction: 0xffffffff
 80013ac:	ffffffff 			; <UNDEFINED> instruction: 0xffffffff
 80013b0:	ffffffff 			; <UNDEFINED> instruction: 0xffffffff
 80013b4:	ffffffff 			; <UNDEFINED> instruction: 0xffffffff
 80013b8:	ffffffff 			; <UNDEFINED> instruction: 0xffffffff
 80013bc:	ffffffff 			; <UNDEFINED> instruction: 0xffffffff
 80013c0:	ffffffff 			; <UNDEFINED> instruction: 0xffffffff
 80013c4:	ffffffff 			; <UNDEFINED> instruction: 0xffffffff
 80013c8:	ffffffff 			; <UNDEFINED> instruction: 0xffffffff
 80013cc:	ffffffff 			; <UNDEFINED> instruction: 0xffffffff
 80013d0:	ffffffff 			; <UNDEFINED> instruction: 0xffffffff
 80013d4:	ffffffff 			; <UNDEFINED> instruction: 0xffffffff
 80013d8:	ffffffff 			; <UNDEFINED> instruction: 0xffffffff
 80013dc:	ffffffff 			; <UNDEFINED> instruction: 0xffffffff
 80013e0:	ffffffff 			; <UNDEFINED> instruction: 0xffffffff
 80013e4:	ffffffff 			; <UNDEFINED> instruction: 0xffffffff
 80013e8:	ffffffff 			; <UNDEFINED> instruction: 0xffffffff
 80013ec:	ffffffff 			; <UNDEFINED> instruction: 0xffffffff
 80013f0:	ffffffff 			; <UNDEFINED> instruction: 0xffffffff
 80013f4:	ffffffff 			; <UNDEFINED> instruction: 0xffffffff
 80013f8:	ffffffff 			; <UNDEFINED> instruction: 0xffffffff
 80013fc:	ffffffff 			; <UNDEFINED> instruction: 0xffffffff
 8001400:	ffffffff 			; <UNDEFINED> instruction: 0xffffffff
 8001404:	ffffffff 			; <UNDEFINED> instruction: 0xffffffff
 8001408:	ffffffff 			; <UNDEFINED> instruction: 0xffffffff
 800140c:	ffffffff 			; <UNDEFINED> instruction: 0xffffffff
 8001410:	ffffffff 			; <UNDEFINED> instruction: 0xffffffff
 8001414:	ffffffff 			; <UNDEFINED> instruction: 0xffffffff
 8001418:	ffffffff 			; <UNDEFINED> instruction: 0xffffffff
 800141c:	ffffffff 			; <UNDEFINED> instruction: 0xffffffff
 8001420:	ffffffff 			; <UNDEFINED> instruction: 0xffffffff
 8001424:	ffffffff 			; <UNDEFINED> instruction: 0xffffffff
 8001428:	ffffffff 			; <UNDEFINED> instruction: 0xffffffff
 800142c:	ffffffff 			; <UNDEFINED> instruction: 0xffffffff
 8001430:	ffffffff 			; <UNDEFINED> instruction: 0xffffffff
 8001434:	ffffffff 			; <UNDEFINED> instruction: 0xffffffff
 8001438:	ffffffff 			; <UNDEFINED> instruction: 0xffffffff
 800143c:	ffffffff 			; <UNDEFINED> instruction: 0xffffffff
 8001440:	ffffffff 			; <UNDEFINED> instruction: 0xffffffff
 8001444:	ffffffff 			; <UNDEFINED> instruction: 0xffffffff
 8001448:	ffffffff 			; <UNDEFINED> instruction: 0xffffffff
 800144c:	ffffffff 			; <UNDEFINED> instruction: 0xffffffff
 8001450:	ffffffff 			; <UNDEFINED> instruction: 0xffffffff
 8001454:	ffffffff 			; <UNDEFINED> instruction: 0xffffffff
 8001458:	ffffffff 			; <UNDEFINED> instruction: 0xffffffff
 800145c:	ffffffff 			; <UNDEFINED> instruction: 0xffffffff
 8001460:	ffffffff 			; <UNDEFINED> instruction: 0xffffffff
 8001464:	ffffffff 			; <UNDEFINED> instruction: 0xffffffff
 8001468:	ffffffff 			; <UNDEFINED> instruction: 0xffffffff
 800146c:	ffffffff 			; <UNDEFINED> instruction: 0xffffffff
 8001470:	ffffffff 			; <UNDEFINED> instruction: 0xffffffff
 8001474:	ffffffff 			; <UNDEFINED> instruction: 0xffffffff
 8001478:	ffffffff 			; <UNDEFINED> instruction: 0xffffffff
 800147c:	ffffffff 			; <UNDEFINED> instruction: 0xffffffff
 8001480:	ffffffff 			; <UNDEFINED> instruction: 0xffffffff
 8001484:	ffffffff 			; <UNDEFINED> instruction: 0xffffffff
 8001488:	ffffffff 			; <UNDEFINED> instruction: 0xffffffff
 800148c:	ffffffff 			; <UNDEFINED> instruction: 0xffffffff
 8001490:	ffffffff 			; <UNDEFINED> instruction: 0xffffffff
 8001494:	ffffffff 			; <UNDEFINED> instruction: 0xffffffff
 8001498:	ffffffff 			; <UNDEFINED> instruction: 0xffffffff
 800149c:	ffffffff 			; <UNDEFINED> instruction: 0xffffffff
 80014a0:	ffffffff 			; <UNDEFINED> instruction: 0xffffffff
 80014a4:	ffffffff 			; <UNDEFINED> instruction: 0xffffffff
 80014a8:	ffffffff 			; <UNDEFINED> instruction: 0xffffffff
 80014ac:	ffffffff 			; <UNDEFINED> instruction: 0xffffffff
 80014b0:	ffffffff 			; <UNDEFINED> instruction: 0xffffffff
 80014b4:	ffffffff 			; <UNDEFINED> instruction: 0xffffffff
 80014b8:	ffffffff 			; <UNDEFINED> instruction: 0xffffffff
 80014bc:	ffffffff 			; <UNDEFINED> instruction: 0xffffffff
 80014c0:	ffffffff 			; <UNDEFINED> instruction: 0xffffffff
 80014c4:	ffffffff 			; <UNDEFINED> instruction: 0xffffffff
 80014c8:	ffffffff 			; <UNDEFINED> instruction: 0xffffffff
 80014cc:	ffffffff 			; <UNDEFINED> instruction: 0xffffffff
 80014d0:	ffffffff 			; <UNDEFINED> instruction: 0xffffffff
 80014d4:	ffffffff 			; <UNDEFINED> instruction: 0xffffffff
 80014d8:	ffffffff 			; <UNDEFINED> instruction: 0xffffffff
 80014dc:	ffffffff 			; <UNDEFINED> instruction: 0xffffffff
 80014e0:	ffffffff 			; <UNDEFINED> instruction: 0xffffffff
 80014e4:	ffffffff 			; <UNDEFINED> instruction: 0xffffffff
 80014e8:	ffffffff 			; <UNDEFINED> instruction: 0xffffffff
 80014ec:	ffffffff 			; <UNDEFINED> instruction: 0xffffffff
 80014f0:	ffffffff 			; <UNDEFINED> instruction: 0xffffffff
 80014f4:	ffffffff 			; <UNDEFINED> instruction: 0xffffffff
 80014f8:	ffffffff 			; <UNDEFINED> instruction: 0xffffffff
 80014fc:	ffffffff 			; <UNDEFINED> instruction: 0xffffffff
 8001500:	ffffffff 			; <UNDEFINED> instruction: 0xffffffff
 8001504:	ffffffff 			; <UNDEFINED> instruction: 0xffffffff
 8001508:	ffffffff 			; <UNDEFINED> instruction: 0xffffffff
 800150c:	ffffffff 			; <UNDEFINED> instruction: 0xffffffff
 8001510:	ffffffff 			; <UNDEFINED> instruction: 0xffffffff
 8001514:	ffffffff 			; <UNDEFINED> instruction: 0xffffffff
 8001518:	ffffffff 			; <UNDEFINED> instruction: 0xffffffff
 800151c:	ffffffff 			; <UNDEFINED> instruction: 0xffffffff
 8001520:	ffffffff 			; <UNDEFINED> instruction: 0xffffffff
 8001524:	ffffffff 			; <UNDEFINED> instruction: 0xffffffff
 8001528:	ffffffff 			; <UNDEFINED> instruction: 0xffffffff
 800152c:	ffffffff 			; <UNDEFINED> instruction: 0xffffffff
 8001530:	ffffffff 			; <UNDEFINED> instruction: 0xffffffff
 8001534:	ffffffff 			; <UNDEFINED> instruction: 0xffffffff
 8001538:	ffffffff 			; <UNDEFINED> instruction: 0xffffffff
 800153c:	ffffffff 			; <UNDEFINED> instruction: 0xffffffff
 8001540:	ffffffff 			; <UNDEFINED> instruction: 0xffffffff
 8001544:	ffffffff 			; <UNDEFINED> instruction: 0xffffffff
 8001548:	ffffffff 			; <UNDEFINED> instruction: 0xffffffff
 800154c:	ffffffff 			; <UNDEFINED> instruction: 0xffffffff
 8001550:	ffffffff 			; <UNDEFINED> instruction: 0xffffffff
 8001554:	ffffffff 			; <UNDEFINED> instruction: 0xffffffff
 8001558:	ffffffff 			; <UNDEFINED> instruction: 0xffffffff
 800155c:	ffffffff 			; <UNDEFINED> instruction: 0xffffffff
 8001560:	ffffffff 			; <UNDEFINED> instruction: 0xffffffff
 8001564:	ffffffff 			; <UNDEFINED> instruction: 0xffffffff
 8001568:	ffffffff 			; <UNDEFINED> instruction: 0xffffffff
 800156c:	ffffffff 			; <UNDEFINED> instruction: 0xffffffff
 8001570:	ffffffff 			; <UNDEFINED> instruction: 0xffffffff
 8001574:	ffffffff 			; <UNDEFINED> instruction: 0xffffffff
 8001578:	ffffffff 			; <UNDEFINED> instruction: 0xffffffff
 800157c:	ffffffff 			; <UNDEFINED> instruction: 0xffffffff
 8001580:	ffffffff 			; <UNDEFINED> instruction: 0xffffffff
 8001584:	ffffffff 			; <UNDEFINED> instruction: 0xffffffff
 8001588:	ffffffff 			; <UNDEFINED> instruction: 0xffffffff
 800158c:	ffffffff 			; <UNDEFINED> instruction: 0xffffffff
 8001590:	ffffffff 			; <UNDEFINED> instruction: 0xffffffff
 8001594:	ffffffff 			; <UNDEFINED> instruction: 0xffffffff
 8001598:	ffffffff 			; <UNDEFINED> instruction: 0xffffffff
 800159c:	ffffffff 			; <UNDEFINED> instruction: 0xffffffff
 80015a0:	ffffffff 			; <UNDEFINED> instruction: 0xffffffff
 80015a4:	ffffffff 			; <UNDEFINED> instruction: 0xffffffff
 80015a8:	ffffffff 			; <UNDEFINED> instruction: 0xffffffff
 80015ac:	ffffffff 			; <UNDEFINED> instruction: 0xffffffff
 80015b0:	ffffffff 			; <UNDEFINED> instruction: 0xffffffff
 80015b4:	ffffffff 			; <UNDEFINED> instruction: 0xffffffff
 80015b8:	ffffffff 			; <UNDEFINED> instruction: 0xffffffff
 80015bc:	ffffffff 			; <UNDEFINED> instruction: 0xffffffff
 80015c0:	ffffffff 			; <UNDEFINED> instruction: 0xffffffff
 80015c4:	ffffffff 			; <UNDEFINED> instruction: 0xffffffff
 80015c8:	ffffffff 			; <UNDEFINED> instruction: 0xffffffff
 80015cc:	ffffffff 			; <UNDEFINED> instruction: 0xffffffff
 80015d0:	ffffffff 			; <UNDEFINED> instruction: 0xffffffff
 80015d4:	ffffffff 			; <UNDEFINED> instruction: 0xffffffff
 80015d8:	ffffffff 			; <UNDEFINED> instruction: 0xffffffff
 80015dc:	ffffffff 			; <UNDEFINED> instruction: 0xffffffff
 80015e0:	ffffffff 			; <UNDEFINED> instruction: 0xffffffff
 80015e4:	ffffffff 			; <UNDEFINED> instruction: 0xffffffff
 80015e8:	ffffffff 			; <UNDEFINED> instruction: 0xffffffff
 80015ec:	ffffffff 			; <UNDEFINED> instruction: 0xffffffff
 80015f0:	ffffffff 			; <UNDEFINED> instruction: 0xffffffff
 80015f4:	ffffffff 			; <UNDEFINED> instruction: 0xffffffff
 80015f8:	ffffffff 			; <UNDEFINED> instruction: 0xffffffff
 80015fc:	ffffffff 			; <UNDEFINED> instruction: 0xffffffff
 8001600:	ffffffff 			; <UNDEFINED> instruction: 0xffffffff
 8001604:	ffffffff 			; <UNDEFINED> instruction: 0xffffffff
 8001608:	ffffffff 			; <UNDEFINED> instruction: 0xffffffff
 800160c:	ffffffff 			; <UNDEFINED> instruction: 0xffffffff
 8001610:	ffffffff 			; <UNDEFINED> instruction: 0xffffffff
 8001614:	ffffffff 			; <UNDEFINED> instruction: 0xffffffff
 8001618:	ffffffff 			; <UNDEFINED> instruction: 0xffffffff
 800161c:	ffffffff 			; <UNDEFINED> instruction: 0xffffffff
 8001620:	ffffffff 			; <UNDEFINED> instruction: 0xffffffff
 8001624:	ffffffff 			; <UNDEFINED> instruction: 0xffffffff
 8001628:	ffffffff 			; <UNDEFINED> instruction: 0xffffffff
 800162c:	ffffffff 			; <UNDEFINED> instruction: 0xffffffff
 8001630:	ffffffff 			; <UNDEFINED> instruction: 0xffffffff
 8001634:	ffffffff 			; <UNDEFINED> instruction: 0xffffffff
 8001638:	ffffffff 			; <UNDEFINED> instruction: 0xffffffff
 800163c:	ffffffff 			; <UNDEFINED> instruction: 0xffffffff
 8001640:	ffffffff 			; <UNDEFINED> instruction: 0xffffffff
 8001644:	ffffffff 			; <UNDEFINED> instruction: 0xffffffff
 8001648:	ffffffff 			; <UNDEFINED> instruction: 0xffffffff
 800164c:	ffffffff 			; <UNDEFINED> instruction: 0xffffffff
 8001650:	ffffffff 			; <UNDEFINED> instruction: 0xffffffff
 8001654:	ffffffff 			; <UNDEFINED> instruction: 0xffffffff
 8001658:	ffffffff 			; <UNDEFINED> instruction: 0xffffffff
 800165c:	ffffffff 			; <UNDEFINED> instruction: 0xffffffff
 8001660:	ffffffff 			; <UNDEFINED> instruction: 0xffffffff
 8001664:	ffffffff 			; <UNDEFINED> instruction: 0xffffffff
 8001668:	ffffffff 			; <UNDEFINED> instruction: 0xffffffff
 800166c:	ffffffff 			; <UNDEFINED> instruction: 0xffffffff
 8001670:	ffffffff 			; <UNDEFINED> instruction: 0xffffffff
 8001674:	ffffffff 			; <UNDEFINED> instruction: 0xffffffff
 8001678:	ffffffff 			; <UNDEFINED> instruction: 0xffffffff
 800167c:	ffffffff 			; <UNDEFINED> instruction: 0xffffffff
 8001680:	ffffffff 			; <UNDEFINED> instruction: 0xffffffff
 8001684:	ffffffff 			; <UNDEFINED> instruction: 0xffffffff
 8001688:	ffffffff 			; <UNDEFINED> instruction: 0xffffffff
 800168c:	ffffffff 			; <UNDEFINED> instruction: 0xffffffff
 8001690:	ffffffff 			; <UNDEFINED> instruction: 0xffffffff
 8001694:	ffffffff 			; <UNDEFINED> instruction: 0xffffffff
 8001698:	ffffffff 			; <UNDEFINED> instruction: 0xffffffff
 800169c:	ffffffff 			; <UNDEFINED> instruction: 0xffffffff
 80016a0:	ffffffff 			; <UNDEFINED> instruction: 0xffffffff
 80016a4:	ffffffff 			; <UNDEFINED> instruction: 0xffffffff
 80016a8:	ffffffff 			; <UNDEFINED> instruction: 0xffffffff
 80016ac:	ffffffff 			; <UNDEFINED> instruction: 0xffffffff
 80016b0:	ffffffff 			; <UNDEFINED> instruction: 0xffffffff
 80016b4:	ffffffff 			; <UNDEFINED> instruction: 0xffffffff
 80016b8:	ffffffff 			; <UNDEFINED> instruction: 0xffffffff
 80016bc:	ffffffff 			; <UNDEFINED> instruction: 0xffffffff
 80016c0:	ffffffff 			; <UNDEFINED> instruction: 0xffffffff
 80016c4:	ffffffff 			; <UNDEFINED> instruction: 0xffffffff
 80016c8:	ffffffff 			; <UNDEFINED> instruction: 0xffffffff
 80016cc:	ffffffff 			; <UNDEFINED> instruction: 0xffffffff
 80016d0:	ffffffff 			; <UNDEFINED> instruction: 0xffffffff
 80016d4:	ffffffff 			; <UNDEFINED> instruction: 0xffffffff
 80016d8:	ffffffff 			; <UNDEFINED> instruction: 0xffffffff
 80016dc:	ffffffff 			; <UNDEFINED> instruction: 0xffffffff
 80016e0:	ffffffff 			; <UNDEFINED> instruction: 0xffffffff
 80016e4:	ffffffff 			; <UNDEFINED> instruction: 0xffffffff
 80016e8:	ffffffff 			; <UNDEFINED> instruction: 0xffffffff
 80016ec:	ffffffff 			; <UNDEFINED> instruction: 0xffffffff
 80016f0:	ffffffff 			; <UNDEFINED> instruction: 0xffffffff
 80016f4:	ffffffff 			; <UNDEFINED> instruction: 0xffffffff
 80016f8:	ffffffff 			; <UNDEFINED> instruction: 0xffffffff
 80016fc:	ffffffff 			; <UNDEFINED> instruction: 0xffffffff
 8001700:	ffffffff 			; <UNDEFINED> instruction: 0xffffffff
 8001704:	ffffffff 			; <UNDEFINED> instruction: 0xffffffff
 8001708:	ffffffff 			; <UNDEFINED> instruction: 0xffffffff
 800170c:	ffffffff 			; <UNDEFINED> instruction: 0xffffffff
 8001710:	ffffffff 			; <UNDEFINED> instruction: 0xffffffff
 8001714:	ffffffff 			; <UNDEFINED> instruction: 0xffffffff
 8001718:	ffffffff 			; <UNDEFINED> instruction: 0xffffffff
 800171c:	ffffffff 			; <UNDEFINED> instruction: 0xffffffff
 8001720:	ffffffff 			; <UNDEFINED> instruction: 0xffffffff
 8001724:	ffffffff 			; <UNDEFINED> instruction: 0xffffffff
 8001728:	ffffffff 			; <UNDEFINED> instruction: 0xffffffff
 800172c:	ffffffff 			; <UNDEFINED> instruction: 0xffffffff
 8001730:	ffffffff 			; <UNDEFINED> instruction: 0xffffffff
 8001734:	ffffffff 			; <UNDEFINED> instruction: 0xffffffff
 8001738:	ffffffff 			; <UNDEFINED> instruction: 0xffffffff
 800173c:	ffffffff 			; <UNDEFINED> instruction: 0xffffffff
 8001740:	ffffffff 			; <UNDEFINED> instruction: 0xffffffff
 8001744:	ffffffff 			; <UNDEFINED> instruction: 0xffffffff
 8001748:	ffffffff 			; <UNDEFINED> instruction: 0xffffffff
 800174c:	ffffffff 			; <UNDEFINED> instruction: 0xffffffff
 8001750:	ffffffff 			; <UNDEFINED> instruction: 0xffffffff
 8001754:	ffffffff 			; <UNDEFINED> instruction: 0xffffffff
 8001758:	ffffffff 			; <UNDEFINED> instruction: 0xffffffff
 800175c:	ffffffff 			; <UNDEFINED> instruction: 0xffffffff
 8001760:	ffffffff 			; <UNDEFINED> instruction: 0xffffffff
 8001764:	ffffffff 			; <UNDEFINED> instruction: 0xffffffff
 8001768:	ffffffff 			; <UNDEFINED> instruction: 0xffffffff
 800176c:	ffffffff 			; <UNDEFINED> instruction: 0xffffffff
 8001770:	ffffffff 			; <UNDEFINED> instruction: 0xffffffff
 8001774:	ffffffff 			; <UNDEFINED> instruction: 0xffffffff
 8001778:	ffffffff 			; <UNDEFINED> instruction: 0xffffffff
 800177c:	ffffffff 			; <UNDEFINED> instruction: 0xffffffff
 8001780:	ffffffff 			; <UNDEFINED> instruction: 0xffffffff
 8001784:	ffffffff 			; <UNDEFINED> instruction: 0xffffffff
 8001788:	ffffffff 			; <UNDEFINED> instruction: 0xffffffff
 800178c:	ffffffff 			; <UNDEFINED> instruction: 0xffffffff
 8001790:	ffffffff 			; <UNDEFINED> instruction: 0xffffffff
 8001794:	ffffffff 			; <UNDEFINED> instruction: 0xffffffff
 8001798:	ffffffff 			; <UNDEFINED> instruction: 0xffffffff
 800179c:	ffffffff 			; <UNDEFINED> instruction: 0xffffffff
 80017a0:	ffffffff 			; <UNDEFINED> instruction: 0xffffffff
 80017a4:	ffffffff 			; <UNDEFINED> instruction: 0xffffffff
 80017a8:	ffffffff 			; <UNDEFINED> instruction: 0xffffffff
 80017ac:	ffffffff 			; <UNDEFINED> instruction: 0xffffffff
 80017b0:	ffffffff 			; <UNDEFINED> instruction: 0xffffffff
 80017b4:	ffffffff 			; <UNDEFINED> instruction: 0xffffffff
 80017b8:	ffffffff 			; <UNDEFINED> instruction: 0xffffffff
 80017bc:	ffffffff 			; <UNDEFINED> instruction: 0xffffffff
 80017c0:	ffffffff 			; <UNDEFINED> instruction: 0xffffffff
 80017c4:	ffffffff 			; <UNDEFINED> instruction: 0xffffffff
 80017c8:	ffffffff 			; <UNDEFINED> instruction: 0xffffffff
 80017cc:	ffffffff 			; <UNDEFINED> instruction: 0xffffffff
 80017d0:	ffffffff 			; <UNDEFINED> instruction: 0xffffffff
 80017d4:	ffffffff 			; <UNDEFINED> instruction: 0xffffffff
 80017d8:	ffffffff 			; <UNDEFINED> instruction: 0xffffffff
 80017dc:	ffffffff 			; <UNDEFINED> instruction: 0xffffffff
 80017e0:	ffffffff 			; <UNDEFINED> instruction: 0xffffffff
 80017e4:	ffffffff 			; <UNDEFINED> instruction: 0xffffffff
 80017e8:	ffffffff 			; <UNDEFINED> instruction: 0xffffffff
 80017ec:	ffffffff 			; <UNDEFINED> instruction: 0xffffffff
 80017f0:	ffffffff 			; <UNDEFINED> instruction: 0xffffffff
 80017f4:	ffffffff 			; <UNDEFINED> instruction: 0xffffffff
 80017f8:	ffffffff 			; <UNDEFINED> instruction: 0xffffffff
 80017fc:	ffffffff 			; <UNDEFINED> instruction: 0xffffffff
 8001800:	ffffffff 			; <UNDEFINED> instruction: 0xffffffff
 8001804:	ffffffff 			; <UNDEFINED> instruction: 0xffffffff
 8001808:	ffffffff 			; <UNDEFINED> instruction: 0xffffffff
 800180c:	ffffffff 			; <UNDEFINED> instruction: 0xffffffff
 8001810:	ffffffff 			; <UNDEFINED> instruction: 0xffffffff
 8001814:	ffffffff 			; <UNDEFINED> instruction: 0xffffffff
 8001818:	ffffffff 			; <UNDEFINED> instruction: 0xffffffff
 800181c:	ffffffff 			; <UNDEFINED> instruction: 0xffffffff
 8001820:	ffffffff 			; <UNDEFINED> instruction: 0xffffffff
 8001824:	ffffffff 			; <UNDEFINED> instruction: 0xffffffff
 8001828:	ffffffff 			; <UNDEFINED> instruction: 0xffffffff
 800182c:	ffffffff 			; <UNDEFINED> instruction: 0xffffffff
 8001830:	ffffffff 			; <UNDEFINED> instruction: 0xffffffff
 8001834:	ffffffff 			; <UNDEFINED> instruction: 0xffffffff
 8001838:	ffffffff 			; <UNDEFINED> instruction: 0xffffffff
 800183c:	ffffffff 			; <UNDEFINED> instruction: 0xffffffff
 8001840:	ffffffff 			; <UNDEFINED> instruction: 0xffffffff
 8001844:	ffffffff 			; <UNDEFINED> instruction: 0xffffffff
 8001848:	ffffffff 			; <UNDEFINED> instruction: 0xffffffff
 800184c:	ffffffff 			; <UNDEFINED> instruction: 0xffffffff
 8001850:	ffffffff 			; <UNDEFINED> instruction: 0xffffffff
 8001854:	ffffffff 			; <UNDEFINED> instruction: 0xffffffff
 8001858:	ffffffff 			; <UNDEFINED> instruction: 0xffffffff
 800185c:	ffffffff 			; <UNDEFINED> instruction: 0xffffffff
 8001860:	ffffffff 			; <UNDEFINED> instruction: 0xffffffff
 8001864:	ffffffff 			; <UNDEFINED> instruction: 0xffffffff
 8001868:	ffffffff 			; <UNDEFINED> instruction: 0xffffffff
 800186c:	ffffffff 			; <UNDEFINED> instruction: 0xffffffff
 8001870:	ffffffff 			; <UNDEFINED> instruction: 0xffffffff
 8001874:	ffffffff 			; <UNDEFINED> instruction: 0xffffffff
 8001878:	ffffffff 			; <UNDEFINED> instruction: 0xffffffff
 800187c:	ffffffff 			; <UNDEFINED> instruction: 0xffffffff
 8001880:	ffffffff 			; <UNDEFINED> instruction: 0xffffffff
 8001884:	ffffffff 			; <UNDEFINED> instruction: 0xffffffff
 8001888:	ffffffff 			; <UNDEFINED> instruction: 0xffffffff
 800188c:	ffffffff 			; <UNDEFINED> instruction: 0xffffffff
 8001890:	ffffffff 			; <UNDEFINED> instruction: 0xffffffff
 8001894:	ffffffff 			; <UNDEFINED> instruction: 0xffffffff
 8001898:	ffffffff 			; <UNDEFINED> instruction: 0xffffffff
 800189c:	ffffffff 			; <UNDEFINED> instruction: 0xffffffff
 80018a0:	ffffffff 			; <UNDEFINED> instruction: 0xffffffff
 80018a4:	ffffffff 			; <UNDEFINED> instruction: 0xffffffff
 80018a8:	ffffffff 			; <UNDEFINED> instruction: 0xffffffff
 80018ac:	ffffffff 			; <UNDEFINED> instruction: 0xffffffff
 80018b0:	ffffffff 			; <UNDEFINED> instruction: 0xffffffff
 80018b4:	ffffffff 			; <UNDEFINED> instruction: 0xffffffff
 80018b8:	ffffffff 			; <UNDEFINED> instruction: 0xffffffff
 80018bc:	ffffffff 			; <UNDEFINED> instruction: 0xffffffff
 80018c0:	ffffffff 			; <UNDEFINED> instruction: 0xffffffff
 80018c4:	ffffffff 			; <UNDEFINED> instruction: 0xffffffff
 80018c8:	ffffffff 			; <UNDEFINED> instruction: 0xffffffff
 80018cc:	ffffffff 			; <UNDEFINED> instruction: 0xffffffff
 80018d0:	ffffffff 			; <UNDEFINED> instruction: 0xffffffff
 80018d4:	ffffffff 			; <UNDEFINED> instruction: 0xffffffff
 80018d8:	ffffffff 			; <UNDEFINED> instruction: 0xffffffff
 80018dc:	ffffffff 			; <UNDEFINED> instruction: 0xffffffff
 80018e0:	ffffffff 			; <UNDEFINED> instruction: 0xffffffff
 80018e4:	ffffffff 			; <UNDEFINED> instruction: 0xffffffff
 80018e8:	ffffffff 			; <UNDEFINED> instruction: 0xffffffff
 80018ec:	ffffffff 			; <UNDEFINED> instruction: 0xffffffff
 80018f0:	ffffffff 			; <UNDEFINED> instruction: 0xffffffff
 80018f4:	ffffffff 			; <UNDEFINED> instruction: 0xffffffff
 80018f8:	ffffffff 			; <UNDEFINED> instruction: 0xffffffff
 80018fc:	ffffffff 			; <UNDEFINED> instruction: 0xffffffff
 8001900:	ffffffff 			; <UNDEFINED> instruction: 0xffffffff
 8001904:	ffffffff 			; <UNDEFINED> instruction: 0xffffffff
 8001908:	ffffffff 			; <UNDEFINED> instruction: 0xffffffff
 800190c:	ffffffff 			; <UNDEFINED> instruction: 0xffffffff
 8001910:	ffffffff 			; <UNDEFINED> instruction: 0xffffffff
 8001914:	ffffffff 			; <UNDEFINED> instruction: 0xffffffff
 8001918:	ffffffff 			; <UNDEFINED> instruction: 0xffffffff
 800191c:	ffffffff 			; <UNDEFINED> instruction: 0xffffffff
 8001920:	ffffffff 			; <UNDEFINED> instruction: 0xffffffff
 8001924:	ffffffff 			; <UNDEFINED> instruction: 0xffffffff
 8001928:	ffffffff 			; <UNDEFINED> instruction: 0xffffffff
 800192c:	ffffffff 			; <UNDEFINED> instruction: 0xffffffff
 8001930:	ffffffff 			; <UNDEFINED> instruction: 0xffffffff
 8001934:	ffffffff 			; <UNDEFINED> instruction: 0xffffffff
 8001938:	ffffffff 			; <UNDEFINED> instruction: 0xffffffff
 800193c:	ffffffff 			; <UNDEFINED> instruction: 0xffffffff
 8001940:	ffffffff 			; <UNDEFINED> instruction: 0xffffffff
 8001944:	ffffffff 			; <UNDEFINED> instruction: 0xffffffff
 8001948:	ffffffff 			; <UNDEFINED> instruction: 0xffffffff
 800194c:	ffffffff 			; <UNDEFINED> instruction: 0xffffffff
 8001950:	ffffffff 			; <UNDEFINED> instruction: 0xffffffff
 8001954:	ffffffff 			; <UNDEFINED> instruction: 0xffffffff
 8001958:	ffffffff 			; <UNDEFINED> instruction: 0xffffffff
 800195c:	ffffffff 			; <UNDEFINED> instruction: 0xffffffff
 8001960:	ffffffff 			; <UNDEFINED> instruction: 0xffffffff
 8001964:	ffffffff 			; <UNDEFINED> instruction: 0xffffffff
 8001968:	ffffffff 			; <UNDEFINED> instruction: 0xffffffff
 800196c:	ffffffff 			; <UNDEFINED> instruction: 0xffffffff
 8001970:	ffffffff 			; <UNDEFINED> instruction: 0xffffffff
 8001974:	ffffffff 			; <UNDEFINED> instruction: 0xffffffff
 8001978:	ffffffff 			; <UNDEFINED> instruction: 0xffffffff
 800197c:	ffffffff 			; <UNDEFINED> instruction: 0xffffffff
 8001980:	ffffffff 			; <UNDEFINED> instruction: 0xffffffff
 8001984:	ffffffff 			; <UNDEFINED> instruction: 0xffffffff
 8001988:	ffffffff 			; <UNDEFINED> instruction: 0xffffffff
 800198c:	ffffffff 			; <UNDEFINED> instruction: 0xffffffff
 8001990:	ffffffff 			; <UNDEFINED> instruction: 0xffffffff
 8001994:	ffffffff 			; <UNDEFINED> instruction: 0xffffffff
 8001998:	ffffffff 			; <UNDEFINED> instruction: 0xffffffff
 800199c:	ffffffff 			; <UNDEFINED> instruction: 0xffffffff
 80019a0:	ffffffff 			; <UNDEFINED> instruction: 0xffffffff
 80019a4:	ffffffff 			; <UNDEFINED> instruction: 0xffffffff
 80019a8:	ffffffff 			; <UNDEFINED> instruction: 0xffffffff
 80019ac:	ffffffff 			; <UNDEFINED> instruction: 0xffffffff
 80019b0:	ffffffff 			; <UNDEFINED> instruction: 0xffffffff
 80019b4:	ffffffff 			; <UNDEFINED> instruction: 0xffffffff
 80019b8:	ffffffff 			; <UNDEFINED> instruction: 0xffffffff
 80019bc:	ffffffff 			; <UNDEFINED> instruction: 0xffffffff
 80019c0:	ffffffff 			; <UNDEFINED> instruction: 0xffffffff
 80019c4:	ffffffff 			; <UNDEFINED> instruction: 0xffffffff
 80019c8:	ffffffff 			; <UNDEFINED> instruction: 0xffffffff
 80019cc:	ffffffff 			; <UNDEFINED> instruction: 0xffffffff
 80019d0:	ffffffff 			; <UNDEFINED> instruction: 0xffffffff
 80019d4:	ffffffff 			; <UNDEFINED> instruction: 0xffffffff
 80019d8:	ffffffff 			; <UNDEFINED> instruction: 0xffffffff
 80019dc:	ffffffff 			; <UNDEFINED> instruction: 0xffffffff
 80019e0:	ffffffff 			; <UNDEFINED> instruction: 0xffffffff
 80019e4:	ffffffff 			; <UNDEFINED> instruction: 0xffffffff
 80019e8:	ffffffff 			; <UNDEFINED> instruction: 0xffffffff
 80019ec:	ffffffff 			; <UNDEFINED> instruction: 0xffffffff
 80019f0:	ffffffff 			; <UNDEFINED> instruction: 0xffffffff
 80019f4:	ffffffff 			; <UNDEFINED> instruction: 0xffffffff
 80019f8:	ffffffff 			; <UNDEFINED> instruction: 0xffffffff
 80019fc:	ffffffff 			; <UNDEFINED> instruction: 0xffffffff
 8001a00:	ffffffff 			; <UNDEFINED> instruction: 0xffffffff
 8001a04:	ffffffff 			; <UNDEFINED> instruction: 0xffffffff
 8001a08:	ffffffff 			; <UNDEFINED> instruction: 0xffffffff
 8001a0c:	ffffffff 			; <UNDEFINED> instruction: 0xffffffff
 8001a10:	ffffffff 			; <UNDEFINED> instruction: 0xffffffff
 8001a14:	ffffffff 			; <UNDEFINED> instruction: 0xffffffff
 8001a18:	ffffffff 			; <UNDEFINED> instruction: 0xffffffff
 8001a1c:	ffffffff 			; <UNDEFINED> instruction: 0xffffffff
 8001a20:	ffffffff 			; <UNDEFINED> instruction: 0xffffffff
 8001a24:	ffffffff 			; <UNDEFINED> instruction: 0xffffffff
 8001a28:	ffffffff 			; <UNDEFINED> instruction: 0xffffffff
 8001a2c:	ffffffff 			; <UNDEFINED> instruction: 0xffffffff
 8001a30:	ffffffff 			; <UNDEFINED> instruction: 0xffffffff
 8001a34:	ffffffff 			; <UNDEFINED> instruction: 0xffffffff
 8001a38:	ffffffff 			; <UNDEFINED> instruction: 0xffffffff
 8001a3c:	ffffffff 			; <UNDEFINED> instruction: 0xffffffff
 8001a40:	ffffffff 			; <UNDEFINED> instruction: 0xffffffff
 8001a44:	ffffffff 			; <UNDEFINED> instruction: 0xffffffff
 8001a48:	ffffffff 			; <UNDEFINED> instruction: 0xffffffff
 8001a4c:	ffffffff 			; <UNDEFINED> instruction: 0xffffffff
 8001a50:	ffffffff 			; <UNDEFINED> instruction: 0xffffffff
 8001a54:	ffffffff 			; <UNDEFINED> instruction: 0xffffffff
 8001a58:	ffffffff 			; <UNDEFINED> instruction: 0xffffffff
 8001a5c:	ffffffff 			; <UNDEFINED> instruction: 0xffffffff
 8001a60:	ffffffff 			; <UNDEFINED> instruction: 0xffffffff
 8001a64:	ffffffff 			; <UNDEFINED> instruction: 0xffffffff
 8001a68:	ffffffff 			; <UNDEFINED> instruction: 0xffffffff
 8001a6c:	ffffffff 			; <UNDEFINED> instruction: 0xffffffff
 8001a70:	ffffffff 			; <UNDEFINED> instruction: 0xffffffff
 8001a74:	ffffffff 			; <UNDEFINED> instruction: 0xffffffff
 8001a78:	ffffffff 			; <UNDEFINED> instruction: 0xffffffff
 8001a7c:	ffffffff 			; <UNDEFINED> instruction: 0xffffffff
 8001a80:	ffffffff 			; <UNDEFINED> instruction: 0xffffffff
 8001a84:	ffffffff 			; <UNDEFINED> instruction: 0xffffffff
 8001a88:	ffffffff 			; <UNDEFINED> instruction: 0xffffffff
 8001a8c:	ffffffff 			; <UNDEFINED> instruction: 0xffffffff
 8001a90:	ffffffff 			; <UNDEFINED> instruction: 0xffffffff
 8001a94:	ffffffff 			; <UNDEFINED> instruction: 0xffffffff
 8001a98:	ffffffff 			; <UNDEFINED> instruction: 0xffffffff
 8001a9c:	ffffffff 			; <UNDEFINED> instruction: 0xffffffff
 8001aa0:	ffffffff 			; <UNDEFINED> instruction: 0xffffffff
 8001aa4:	ffffffff 			; <UNDEFINED> instruction: 0xffffffff
 8001aa8:	ffffffff 			; <UNDEFINED> instruction: 0xffffffff
 8001aac:	ffffffff 			; <UNDEFINED> instruction: 0xffffffff
 8001ab0:	ffffffff 			; <UNDEFINED> instruction: 0xffffffff
 8001ab4:	ffffffff 			; <UNDEFINED> instruction: 0xffffffff
 8001ab8:	ffffffff 			; <UNDEFINED> instruction: 0xffffffff
 8001abc:	ffffffff 			; <UNDEFINED> instruction: 0xffffffff
 8001ac0:	ffffffff 			; <UNDEFINED> instruction: 0xffffffff
 8001ac4:	ffffffff 			; <UNDEFINED> instruction: 0xffffffff
 8001ac8:	ffffffff 			; <UNDEFINED> instruction: 0xffffffff
 8001acc:	ffffffff 			; <UNDEFINED> instruction: 0xffffffff
 8001ad0:	ffffffff 			; <UNDEFINED> instruction: 0xffffffff
 8001ad4:	ffffffff 			; <UNDEFINED> instruction: 0xffffffff
 8001ad8:	ffffffff 			; <UNDEFINED> instruction: 0xffffffff
 8001adc:	ffffffff 			; <UNDEFINED> instruction: 0xffffffff
 8001ae0:	ffffffff 			; <UNDEFINED> instruction: 0xffffffff
 8001ae4:	ffffffff 			; <UNDEFINED> instruction: 0xffffffff
 8001ae8:	ffffffff 			; <UNDEFINED> instruction: 0xffffffff
 8001aec:	ffffffff 			; <UNDEFINED> instruction: 0xffffffff
 8001af0:	ffffffff 			; <UNDEFINED> instruction: 0xffffffff
 8001af4:	ffffffff 			; <UNDEFINED> instruction: 0xffffffff
 8001af8:	ffffffff 			; <UNDEFINED> instruction: 0xffffffff
 8001afc:	ffffffff 			; <UNDEFINED> instruction: 0xffffffff
 8001b00:	ffffffff 			; <UNDEFINED> instruction: 0xffffffff
 8001b04:	ffffffff 			; <UNDEFINED> instruction: 0xffffffff
 8001b08:	ffffffff 			; <UNDEFINED> instruction: 0xffffffff
 8001b0c:	ffffffff 			; <UNDEFINED> instruction: 0xffffffff
 8001b10:	ffffffff 			; <UNDEFINED> instruction: 0xffffffff
 8001b14:	ffffffff 			; <UNDEFINED> instruction: 0xffffffff
 8001b18:	ffffffff 			; <UNDEFINED> instruction: 0xffffffff
 8001b1c:	ffffffff 			; <UNDEFINED> instruction: 0xffffffff
 8001b20:	ffffffff 			; <UNDEFINED> instruction: 0xffffffff
 8001b24:	ffffffff 			; <UNDEFINED> instruction: 0xffffffff
 8001b28:	ffffffff 			; <UNDEFINED> instruction: 0xffffffff
 8001b2c:	ffffffff 			; <UNDEFINED> instruction: 0xffffffff
 8001b30:	ffffffff 			; <UNDEFINED> instruction: 0xffffffff
 8001b34:	ffffffff 			; <UNDEFINED> instruction: 0xffffffff
 8001b38:	ffffffff 			; <UNDEFINED> instruction: 0xffffffff
 8001b3c:	ffffffff 			; <UNDEFINED> instruction: 0xffffffff
 8001b40:	ffffffff 			; <UNDEFINED> instruction: 0xffffffff
 8001b44:	ffffffff 			; <UNDEFINED> instruction: 0xffffffff
 8001b48:	ffffffff 			; <UNDEFINED> instruction: 0xffffffff
 8001b4c:	ffffffff 			; <UNDEFINED> instruction: 0xffffffff
 8001b50:	ffffffff 			; <UNDEFINED> instruction: 0xffffffff
 8001b54:	ffffffff 			; <UNDEFINED> instruction: 0xffffffff
 8001b58:	ffffffff 			; <UNDEFINED> instruction: 0xffffffff
 8001b5c:	ffffffff 			; <UNDEFINED> instruction: 0xffffffff
 8001b60:	ffffffff 			; <UNDEFINED> instruction: 0xffffffff
 8001b64:	ffffffff 			; <UNDEFINED> instruction: 0xffffffff
 8001b68:	ffffffff 			; <UNDEFINED> instruction: 0xffffffff
 8001b6c:	ffffffff 			; <UNDEFINED> instruction: 0xffffffff
 8001b70:	ffffffff 			; <UNDEFINED> instruction: 0xffffffff
 8001b74:	ffffffff 			; <UNDEFINED> instruction: 0xffffffff
 8001b78:	ffffffff 			; <UNDEFINED> instruction: 0xffffffff
 8001b7c:	ffffffff 			; <UNDEFINED> instruction: 0xffffffff
 8001b80:	ffffffff 			; <UNDEFINED> instruction: 0xffffffff
 8001b84:	ffffffff 			; <UNDEFINED> instruction: 0xffffffff
 8001b88:	ffffffff 			; <UNDEFINED> instruction: 0xffffffff
 8001b8c:	ffffffff 			; <UNDEFINED> instruction: 0xffffffff
 8001b90:	ffffffff 			; <UNDEFINED> instruction: 0xffffffff
 8001b94:	ffffffff 			; <UNDEFINED> instruction: 0xffffffff
 8001b98:	ffffffff 			; <UNDEFINED> instruction: 0xffffffff
 8001b9c:	ffffffff 			; <UNDEFINED> instruction: 0xffffffff
 8001ba0:	ffffffff 			; <UNDEFINED> instruction: 0xffffffff
 8001ba4:	ffffffff 			; <UNDEFINED> instruction: 0xffffffff
 8001ba8:	ffffffff 			; <UNDEFINED> instruction: 0xffffffff
 8001bac:	ffffffff 			; <UNDEFINED> instruction: 0xffffffff
 8001bb0:	ffffffff 			; <UNDEFINED> instruction: 0xffffffff
 8001bb4:	ffffffff 			; <UNDEFINED> instruction: 0xffffffff
 8001bb8:	ffffffff 			; <UNDEFINED> instruction: 0xffffffff
 8001bbc:	ffffffff 			; <UNDEFINED> instruction: 0xffffffff
 8001bc0:	ffffffff 			; <UNDEFINED> instruction: 0xffffffff
 8001bc4:	ffffffff 			; <UNDEFINED> instruction: 0xffffffff
 8001bc8:	ffffffff 			; <UNDEFINED> instruction: 0xffffffff
 8001bcc:	ffffffff 			; <UNDEFINED> instruction: 0xffffffff
 8001bd0:	ffffffff 			; <UNDEFINED> instruction: 0xffffffff
 8001bd4:	ffffffff 			; <UNDEFINED> instruction: 0xffffffff
 8001bd8:	ffffffff 			; <UNDEFINED> instruction: 0xffffffff
 8001bdc:	ffffffff 			; <UNDEFINED> instruction: 0xffffffff
 8001be0:	ffffffff 			; <UNDEFINED> instruction: 0xffffffff
 8001be4:	ffffffff 			; <UNDEFINED> instruction: 0xffffffff
 8001be8:	ffffffff 			; <UNDEFINED> instruction: 0xffffffff
 8001bec:	ffffffff 			; <UNDEFINED> instruction: 0xffffffff
 8001bf0:	ffffffff 			; <UNDEFINED> instruction: 0xffffffff
 8001bf4:	ffffffff 			; <UNDEFINED> instruction: 0xffffffff
 8001bf8:	ffffffff 			; <UNDEFINED> instruction: 0xffffffff
 8001bfc:	ffffffff 			; <UNDEFINED> instruction: 0xffffffff
 8001c00:	ffffffff 			; <UNDEFINED> instruction: 0xffffffff
 8001c04:	ffffffff 			; <UNDEFINED> instruction: 0xffffffff
 8001c08:	ffffffff 			; <UNDEFINED> instruction: 0xffffffff
 8001c0c:	ffffffff 			; <UNDEFINED> instruction: 0xffffffff
 8001c10:	ffffffff 			; <UNDEFINED> instruction: 0xffffffff
 8001c14:	ffffffff 			; <UNDEFINED> instruction: 0xffffffff
 8001c18:	ffffffff 			; <UNDEFINED> instruction: 0xffffffff
 8001c1c:	ffffffff 			; <UNDEFINED> instruction: 0xffffffff
 8001c20:	ffffffff 			; <UNDEFINED> instruction: 0xffffffff
 8001c24:	ffffffff 			; <UNDEFINED> instruction: 0xffffffff
 8001c28:	ffffffff 			; <UNDEFINED> instruction: 0xffffffff
 8001c2c:	ffffffff 			; <UNDEFINED> instruction: 0xffffffff
 8001c30:	ffffffff 			; <UNDEFINED> instruction: 0xffffffff
 8001c34:	ffffffff 			; <UNDEFINED> instruction: 0xffffffff
 8001c38:	ffffffff 			; <UNDEFINED> instruction: 0xffffffff
 8001c3c:	ffffffff 			; <UNDEFINED> instruction: 0xffffffff
 8001c40:	ffffffff 			; <UNDEFINED> instruction: 0xffffffff
 8001c44:	ffffffff 			; <UNDEFINED> instruction: 0xffffffff
 8001c48:	ffffffff 			; <UNDEFINED> instruction: 0xffffffff
 8001c4c:	ffffffff 			; <UNDEFINED> instruction: 0xffffffff
 8001c50:	ffffffff 			; <UNDEFINED> instruction: 0xffffffff
 8001c54:	ffffffff 			; <UNDEFINED> instruction: 0xffffffff
 8001c58:	ffffffff 			; <UNDEFINED> instruction: 0xffffffff
 8001c5c:	ffffffff 			; <UNDEFINED> instruction: 0xffffffff
 8001c60:	ffffffff 			; <UNDEFINED> instruction: 0xffffffff
 8001c64:	ffffffff 			; <UNDEFINED> instruction: 0xffffffff
 8001c68:	ffffffff 			; <UNDEFINED> instruction: 0xffffffff
 8001c6c:	ffffffff 			; <UNDEFINED> instruction: 0xffffffff
 8001c70:	ffffffff 			; <UNDEFINED> instruction: 0xffffffff
 8001c74:	ffffffff 			; <UNDEFINED> instruction: 0xffffffff
 8001c78:	ffffffff 			; <UNDEFINED> instruction: 0xffffffff
 8001c7c:	ffffffff 			; <UNDEFINED> instruction: 0xffffffff
 8001c80:	ffffffff 			; <UNDEFINED> instruction: 0xffffffff
 8001c84:	ffffffff 			; <UNDEFINED> instruction: 0xffffffff
 8001c88:	ffffffff 			; <UNDEFINED> instruction: 0xffffffff
 8001c8c:	ffffffff 			; <UNDEFINED> instruction: 0xffffffff
 8001c90:	ffffffff 			; <UNDEFINED> instruction: 0xffffffff
 8001c94:	ffffffff 			; <UNDEFINED> instruction: 0xffffffff
 8001c98:	ffffffff 			; <UNDEFINED> instruction: 0xffffffff
 8001c9c:	ffffffff 			; <UNDEFINED> instruction: 0xffffffff
 8001ca0:	ffffffff 			; <UNDEFINED> instruction: 0xffffffff
 8001ca4:	ffffffff 			; <UNDEFINED> instruction: 0xffffffff
 8001ca8:	ffffffff 			; <UNDEFINED> instruction: 0xffffffff
 8001cac:	ffffffff 			; <UNDEFINED> instruction: 0xffffffff
 8001cb0:	ffffffff 			; <UNDEFINED> instruction: 0xffffffff
 8001cb4:	ffffffff 			; <UNDEFINED> instruction: 0xffffffff
 8001cb8:	ffffffff 			; <UNDEFINED> instruction: 0xffffffff
 8001cbc:	ffffffff 			; <UNDEFINED> instruction: 0xffffffff
 8001cc0:	ffffffff 			; <UNDEFINED> instruction: 0xffffffff
 8001cc4:	ffffffff 			; <UNDEFINED> instruction: 0xffffffff
 8001cc8:	ffffffff 			; <UNDEFINED> instruction: 0xffffffff
 8001ccc:	ffffffff 			; <UNDEFINED> instruction: 0xffffffff
 8001cd0:	ffffffff 			; <UNDEFINED> instruction: 0xffffffff
 8001cd4:	ffffffff 			; <UNDEFINED> instruction: 0xffffffff
 8001cd8:	ffffffff 			; <UNDEFINED> instruction: 0xffffffff
 8001cdc:	ffffffff 			; <UNDEFINED> instruction: 0xffffffff
 8001ce0:	ffffffff 			; <UNDEFINED> instruction: 0xffffffff
 8001ce4:	ffffffff 			; <UNDEFINED> instruction: 0xffffffff
 8001ce8:	ffffffff 			; <UNDEFINED> instruction: 0xffffffff
 8001cec:	ffffffff 			; <UNDEFINED> instruction: 0xffffffff
 8001cf0:	ffffffff 			; <UNDEFINED> instruction: 0xffffffff
 8001cf4:	ffffffff 			; <UNDEFINED> instruction: 0xffffffff
 8001cf8:	ffffffff 			; <UNDEFINED> instruction: 0xffffffff
 8001cfc:	ffffffff 			; <UNDEFINED> instruction: 0xffffffff
 8001d00:	ffffffff 			; <UNDEFINED> instruction: 0xffffffff
 8001d04:	ffffffff 			; <UNDEFINED> instruction: 0xffffffff
 8001d08:	ffffffff 			; <UNDEFINED> instruction: 0xffffffff
 8001d0c:	ffffffff 			; <UNDEFINED> instruction: 0xffffffff
 8001d10:	ffffffff 			; <UNDEFINED> instruction: 0xffffffff
 8001d14:	ffffffff 			; <UNDEFINED> instruction: 0xffffffff
 8001d18:	ffffffff 			; <UNDEFINED> instruction: 0xffffffff
 8001d1c:	ffffffff 			; <UNDEFINED> instruction: 0xffffffff
 8001d20:	ffffffff 			; <UNDEFINED> instruction: 0xffffffff
 8001d24:	ffffffff 			; <UNDEFINED> instruction: 0xffffffff
 8001d28:	ffffffff 			; <UNDEFINED> instruction: 0xffffffff
 8001d2c:	ffffffff 			; <UNDEFINED> instruction: 0xffffffff
 8001d30:	ffffffff 			; <UNDEFINED> instruction: 0xffffffff
 8001d34:	ffffffff 			; <UNDEFINED> instruction: 0xffffffff
 8001d38:	ffffffff 			; <UNDEFINED> instruction: 0xffffffff
 8001d3c:	ffffffff 			; <UNDEFINED> instruction: 0xffffffff
 8001d40:	ffffffff 			; <UNDEFINED> instruction: 0xffffffff
 8001d44:	ffffffff 			; <UNDEFINED> instruction: 0xffffffff
 8001d48:	ffffffff 			; <UNDEFINED> instruction: 0xffffffff
 8001d4c:	ffffffff 			; <UNDEFINED> instruction: 0xffffffff
 8001d50:	ffffffff 			; <UNDEFINED> instruction: 0xffffffff
 8001d54:	ffffffff 			; <UNDEFINED> instruction: 0xffffffff
 8001d58:	ffffffff 			; <UNDEFINED> instruction: 0xffffffff
 8001d5c:	ffffffff 			; <UNDEFINED> instruction: 0xffffffff
 8001d60:	ffffffff 			; <UNDEFINED> instruction: 0xffffffff
 8001d64:	ffffffff 			; <UNDEFINED> instruction: 0xffffffff
 8001d68:	ffffffff 			; <UNDEFINED> instruction: 0xffffffff
 8001d6c:	ffffffff 			; <UNDEFINED> instruction: 0xffffffff
 8001d70:	ffffffff 			; <UNDEFINED> instruction: 0xffffffff
 8001d74:	ffffffff 			; <UNDEFINED> instruction: 0xffffffff
 8001d78:	ffffffff 			; <UNDEFINED> instruction: 0xffffffff
 8001d7c:	ffffffff 			; <UNDEFINED> instruction: 0xffffffff
 8001d80:	ffffffff 			; <UNDEFINED> instruction: 0xffffffff
 8001d84:	ffffffff 			; <UNDEFINED> instruction: 0xffffffff
 8001d88:	ffffffff 			; <UNDEFINED> instruction: 0xffffffff
 8001d8c:	ffffffff 			; <UNDEFINED> instruction: 0xffffffff
 8001d90:	ffffffff 			; <UNDEFINED> instruction: 0xffffffff
 8001d94:	ffffffff 			; <UNDEFINED> instruction: 0xffffffff
 8001d98:	ffffffff 			; <UNDEFINED> instruction: 0xffffffff
 8001d9c:	ffffffff 			; <UNDEFINED> instruction: 0xffffffff
 8001da0:	ffffffff 			; <UNDEFINED> instruction: 0xffffffff
 8001da4:	ffffffff 			; <UNDEFINED> instruction: 0xffffffff
 8001da8:	ffffffff 			; <UNDEFINED> instruction: 0xffffffff
 8001dac:	ffffffff 			; <UNDEFINED> instruction: 0xffffffff
 8001db0:	ffffffff 			; <UNDEFINED> instruction: 0xffffffff
 8001db4:	ffffffff 			; <UNDEFINED> instruction: 0xffffffff
 8001db8:	ffffffff 			; <UNDEFINED> instruction: 0xffffffff
 8001dbc:	ffffffff 			; <UNDEFINED> instruction: 0xffffffff
 8001dc0:	ffffffff 			; <UNDEFINED> instruction: 0xffffffff
 8001dc4:	ffffffff 			; <UNDEFINED> instruction: 0xffffffff
 8001dc8:	ffffffff 			; <UNDEFINED> instruction: 0xffffffff
 8001dcc:	ffffffff 			; <UNDEFINED> instruction: 0xffffffff
 8001dd0:	ffffffff 			; <UNDEFINED> instruction: 0xffffffff
 8001dd4:	ffffffff 			; <UNDEFINED> instruction: 0xffffffff
 8001dd8:	ffffffff 			; <UNDEFINED> instruction: 0xffffffff
 8001ddc:	ffffffff 			; <UNDEFINED> instruction: 0xffffffff
 8001de0:	ffffffff 			; <UNDEFINED> instruction: 0xffffffff
 8001de4:	ffffffff 			; <UNDEFINED> instruction: 0xffffffff
 8001de8:	ffffffff 			; <UNDEFINED> instruction: 0xffffffff
 8001dec:	ffffffff 			; <UNDEFINED> instruction: 0xffffffff
 8001df0:	ffffffff 			; <UNDEFINED> instruction: 0xffffffff
 8001df4:	ffffffff 			; <UNDEFINED> instruction: 0xffffffff
 8001df8:	ffffffff 			; <UNDEFINED> instruction: 0xffffffff
 8001dfc:	ffffffff 			; <UNDEFINED> instruction: 0xffffffff
 8001e00:	ffffffff 			; <UNDEFINED> instruction: 0xffffffff
 8001e04:	ffffffff 			; <UNDEFINED> instruction: 0xffffffff
 8001e08:	ffffffff 			; <UNDEFINED> instruction: 0xffffffff
 8001e0c:	ffffffff 			; <UNDEFINED> instruction: 0xffffffff
 8001e10:	ffffffff 			; <UNDEFINED> instruction: 0xffffffff
 8001e14:	ffffffff 			; <UNDEFINED> instruction: 0xffffffff
 8001e18:	ffffffff 			; <UNDEFINED> instruction: 0xffffffff
 8001e1c:	ffffffff 			; <UNDEFINED> instruction: 0xffffffff
 8001e20:	ffffffff 			; <UNDEFINED> instruction: 0xffffffff
 8001e24:	ffffffff 			; <UNDEFINED> instruction: 0xffffffff
 8001e28:	ffffffff 			; <UNDEFINED> instruction: 0xffffffff
 8001e2c:	ffffffff 			; <UNDEFINED> instruction: 0xffffffff
 8001e30:	ffffffff 			; <UNDEFINED> instruction: 0xffffffff
 8001e34:	ffffffff 			; <UNDEFINED> instruction: 0xffffffff
 8001e38:	ffffffff 			; <UNDEFINED> instruction: 0xffffffff
 8001e3c:	ffffffff 			; <UNDEFINED> instruction: 0xffffffff
 8001e40:	ffffffff 			; <UNDEFINED> instruction: 0xffffffff
 8001e44:	ffffffff 			; <UNDEFINED> instruction: 0xffffffff
 8001e48:	ffffffff 			; <UNDEFINED> instruction: 0xffffffff
 8001e4c:	ffffffff 			; <UNDEFINED> instruction: 0xffffffff
 8001e50:	ffffffff 			; <UNDEFINED> instruction: 0xffffffff
 8001e54:	ffffffff 			; <UNDEFINED> instruction: 0xffffffff
 8001e58:	ffffffff 			; <UNDEFINED> instruction: 0xffffffff
 8001e5c:	ffffffff 			; <UNDEFINED> instruction: 0xffffffff
 8001e60:	ffffffff 			; <UNDEFINED> instruction: 0xffffffff
 8001e64:	ffffffff 			; <UNDEFINED> instruction: 0xffffffff
 8001e68:	ffffffff 			; <UNDEFINED> instruction: 0xffffffff
 8001e6c:	ffffffff 			; <UNDEFINED> instruction: 0xffffffff
 8001e70:	ffffffff 			; <UNDEFINED> instruction: 0xffffffff
 8001e74:	ffffffff 			; <UNDEFINED> instruction: 0xffffffff
 8001e78:	ffffffff 			; <UNDEFINED> instruction: 0xffffffff
 8001e7c:	ffffffff 			; <UNDEFINED> instruction: 0xffffffff
 8001e80:	ffffffff 			; <UNDEFINED> instruction: 0xffffffff
 8001e84:	ffffffff 			; <UNDEFINED> instruction: 0xffffffff
 8001e88:	ffffffff 			; <UNDEFINED> instruction: 0xffffffff
 8001e8c:	ffffffff 			; <UNDEFINED> instruction: 0xffffffff
 8001e90:	ffffffff 			; <UNDEFINED> instruction: 0xffffffff
 8001e94:	ffffffff 			; <UNDEFINED> instruction: 0xffffffff
 8001e98:	ffffffff 			; <UNDEFINED> instruction: 0xffffffff
 8001e9c:	ffffffff 			; <UNDEFINED> instruction: 0xffffffff
 8001ea0:	ffffffff 			; <UNDEFINED> instruction: 0xffffffff
 8001ea4:	ffffffff 			; <UNDEFINED> instruction: 0xffffffff
 8001ea8:	ffffffff 			; <UNDEFINED> instruction: 0xffffffff
 8001eac:	ffffffff 			; <UNDEFINED> instruction: 0xffffffff
 8001eb0:	ffffffff 			; <UNDEFINED> instruction: 0xffffffff
 8001eb4:	ffffffff 			; <UNDEFINED> instruction: 0xffffffff
 8001eb8:	ffffffff 			; <UNDEFINED> instruction: 0xffffffff
 8001ebc:	ffffffff 			; <UNDEFINED> instruction: 0xffffffff
 8001ec0:	ffffffff 			; <UNDEFINED> instruction: 0xffffffff
 8001ec4:	ffffffff 			; <UNDEFINED> instruction: 0xffffffff
 8001ec8:	ffffffff 			; <UNDEFINED> instruction: 0xffffffff
 8001ecc:	ffffffff 			; <UNDEFINED> instruction: 0xffffffff
 8001ed0:	ffffffff 			; <UNDEFINED> instruction: 0xffffffff
 8001ed4:	ffffffff 			; <UNDEFINED> instruction: 0xffffffff
 8001ed8:	ffffffff 			; <UNDEFINED> instruction: 0xffffffff
 8001edc:	ffffffff 			; <UNDEFINED> instruction: 0xffffffff
 8001ee0:	ffffffff 			; <UNDEFINED> instruction: 0xffffffff
 8001ee4:	ffffffff 			; <UNDEFINED> instruction: 0xffffffff
 8001ee8:	ffffffff 			; <UNDEFINED> instruction: 0xffffffff
 8001eec:	ffffffff 			; <UNDEFINED> instruction: 0xffffffff
 8001ef0:	ffffffff 			; <UNDEFINED> instruction: 0xffffffff
 8001ef4:	ffffffff 			; <UNDEFINED> instruction: 0xffffffff
 8001ef8:	ffffffff 			; <UNDEFINED> instruction: 0xffffffff
 8001efc:	ffffffff 			; <UNDEFINED> instruction: 0xffffffff
 8001f00:	ffffffff 			; <UNDEFINED> instruction: 0xffffffff
 8001f04:	ffffffff 			; <UNDEFINED> instruction: 0xffffffff
 8001f08:	ffffffff 			; <UNDEFINED> instruction: 0xffffffff
 8001f0c:	ffffffff 			; <UNDEFINED> instruction: 0xffffffff
 8001f10:	ffffffff 			; <UNDEFINED> instruction: 0xffffffff
 8001f14:	ffffffff 			; <UNDEFINED> instruction: 0xffffffff
 8001f18:	ffffffff 			; <UNDEFINED> instruction: 0xffffffff
 8001f1c:	ffffffff 			; <UNDEFINED> instruction: 0xffffffff
 8001f20:	ffffffff 			; <UNDEFINED> instruction: 0xffffffff
 8001f24:	ffffffff 			; <UNDEFINED> instruction: 0xffffffff
 8001f28:	ffffffff 			; <UNDEFINED> instruction: 0xffffffff
 8001f2c:	ffffffff 			; <UNDEFINED> instruction: 0xffffffff
 8001f30:	ffffffff 			; <UNDEFINED> instruction: 0xffffffff
 8001f34:	ffffffff 			; <UNDEFINED> instruction: 0xffffffff
 8001f38:	ffffffff 			; <UNDEFINED> instruction: 0xffffffff
 8001f3c:	ffffffff 			; <UNDEFINED> instruction: 0xffffffff
 8001f40:	ffffffff 			; <UNDEFINED> instruction: 0xffffffff
 8001f44:	ffffffff 			; <UNDEFINED> instruction: 0xffffffff
 8001f48:	ffffffff 			; <UNDEFINED> instruction: 0xffffffff
 8001f4c:	ffffffff 			; <UNDEFINED> instruction: 0xffffffff
 8001f50:	ffffffff 			; <UNDEFINED> instruction: 0xffffffff
 8001f54:	ffffffff 			; <UNDEFINED> instruction: 0xffffffff
 8001f58:	ffffffff 			; <UNDEFINED> instruction: 0xffffffff
 8001f5c:	ffffffff 			; <UNDEFINED> instruction: 0xffffffff
 8001f60:	ffffffff 			; <UNDEFINED> instruction: 0xffffffff
 8001f64:	ffffffff 			; <UNDEFINED> instruction: 0xffffffff
 8001f68:	ffffffff 			; <UNDEFINED> instruction: 0xffffffff
 8001f6c:	ffffffff 			; <UNDEFINED> instruction: 0xffffffff
 8001f70:	ffffffff 			; <UNDEFINED> instruction: 0xffffffff
 8001f74:	ffffffff 			; <UNDEFINED> instruction: 0xffffffff
 8001f78:	ffffffff 			; <UNDEFINED> instruction: 0xffffffff
 8001f7c:	ffffffff 			; <UNDEFINED> instruction: 0xffffffff
 8001f80:	ffffffff 			; <UNDEFINED> instruction: 0xffffffff
 8001f84:	ffffffff 			; <UNDEFINED> instruction: 0xffffffff
 8001f88:	ffffffff 			; <UNDEFINED> instruction: 0xffffffff
 8001f8c:	ffffffff 			; <UNDEFINED> instruction: 0xffffffff
 8001f90:	ffffffff 			; <UNDEFINED> instruction: 0xffffffff
 8001f94:	ffffffff 			; <UNDEFINED> instruction: 0xffffffff
 8001f98:	ffffffff 			; <UNDEFINED> instruction: 0xffffffff
 8001f9c:	ffffffff 			; <UNDEFINED> instruction: 0xffffffff
 8001fa0:	ffffffff 			; <UNDEFINED> instruction: 0xffffffff
 8001fa4:	ffffffff 			; <UNDEFINED> instruction: 0xffffffff
 8001fa8:	ffffffff 			; <UNDEFINED> instruction: 0xffffffff
 8001fac:	ffffffff 			; <UNDEFINED> instruction: 0xffffffff
 8001fb0:	ffffffff 			; <UNDEFINED> instruction: 0xffffffff
 8001fb4:	ffffffff 			; <UNDEFINED> instruction: 0xffffffff
 8001fb8:	ffffffff 			; <UNDEFINED> instruction: 0xffffffff
 8001fbc:	ffffffff 			; <UNDEFINED> instruction: 0xffffffff
 8001fc0:	ffffffff 			; <UNDEFINED> instruction: 0xffffffff
 8001fc4:	ffffffff 			; <UNDEFINED> instruction: 0xffffffff
 8001fc8:	ffffffff 			; <UNDEFINED> instruction: 0xffffffff
 8001fcc:	ffffffff 			; <UNDEFINED> instruction: 0xffffffff
 8001fd0:	ffffffff 			; <UNDEFINED> instruction: 0xffffffff
 8001fd4:	ffffffff 			; <UNDEFINED> instruction: 0xffffffff
 8001fd8:	ffffffff 			; <UNDEFINED> instruction: 0xffffffff
 8001fdc:	ffffffff 			; <UNDEFINED> instruction: 0xffffffff
 8001fe0:	ffffffff 			; <UNDEFINED> instruction: 0xffffffff
 8001fe4:	ffffffff 			; <UNDEFINED> instruction: 0xffffffff
 8001fe8:	ffffffff 			; <UNDEFINED> instruction: 0xffffffff
 8001fec:	ffffffff 			; <UNDEFINED> instruction: 0xffffffff
 8001ff0:	ffffffff 			; <UNDEFINED> instruction: 0xffffffff
 8001ff4:	ffffffff 			; <UNDEFINED> instruction: 0xffffffff
 8001ff8:	ffffffff 			; <UNDEFINED> instruction: 0xffffffff
 8001ffc:	ffffffff 			; <UNDEFINED> instruction: 0xffffffff
 8002000:	ffffffff 			; <UNDEFINED> instruction: 0xffffffff
 8002004:	ffffffff 			; <UNDEFINED> instruction: 0xffffffff
 8002008:	ffffffff 			; <UNDEFINED> instruction: 0xffffffff
 800200c:	ffffffff 			; <UNDEFINED> instruction: 0xffffffff
 8002010:	ffffffff 			; <UNDEFINED> instruction: 0xffffffff
 8002014:	ffffffff 			; <UNDEFINED> instruction: 0xffffffff
 8002018:	ffffffff 			; <UNDEFINED> instruction: 0xffffffff
 800201c:	ffffffff 			; <UNDEFINED> instruction: 0xffffffff
 8002020:	ffffffff 			; <UNDEFINED> instruction: 0xffffffff
 8002024:	ffffffff 			; <UNDEFINED> instruction: 0xffffffff
 8002028:	ffffffff 			; <UNDEFINED> instruction: 0xffffffff
 800202c:	ffffffff 			; <UNDEFINED> instruction: 0xffffffff
 8002030:	ffffffff 			; <UNDEFINED> instruction: 0xffffffff
 8002034:	ffffffff 			; <UNDEFINED> instruction: 0xffffffff
 8002038:	ffffffff 			; <UNDEFINED> instruction: 0xffffffff
 800203c:	ffffffff 			; <UNDEFINED> instruction: 0xffffffff
 8002040:	ffffffff 			; <UNDEFINED> instruction: 0xffffffff
 8002044:	ffffffff 			; <UNDEFINED> instruction: 0xffffffff
 8002048:	ffffffff 			; <UNDEFINED> instruction: 0xffffffff
 800204c:	ffffffff 			; <UNDEFINED> instruction: 0xffffffff
 8002050:	ffffffff 			; <UNDEFINED> instruction: 0xffffffff
 8002054:	ffffffff 			; <UNDEFINED> instruction: 0xffffffff
 8002058:	ffffffff 			; <UNDEFINED> instruction: 0xffffffff
 800205c:	ffffffff 			; <UNDEFINED> instruction: 0xffffffff
 8002060:	ffffffff 			; <UNDEFINED> instruction: 0xffffffff
 8002064:	ffffffff 			; <UNDEFINED> instruction: 0xffffffff
 8002068:	ffffffff 			; <UNDEFINED> instruction: 0xffffffff
 800206c:	ffffffff 			; <UNDEFINED> instruction: 0xffffffff
 8002070:	ffffffff 			; <UNDEFINED> instruction: 0xffffffff
 8002074:	ffffffff 			; <UNDEFINED> instruction: 0xffffffff
 8002078:	ffffffff 			; <UNDEFINED> instruction: 0xffffffff
 800207c:	ffffffff 			; <UNDEFINED> instruction: 0xffffffff
 8002080:	ffffffff 			; <UNDEFINED> instruction: 0xffffffff
 8002084:	ffffffff 			; <UNDEFINED> instruction: 0xffffffff
 8002088:	ffffffff 			; <UNDEFINED> instruction: 0xffffffff
 800208c:	ffffffff 			; <UNDEFINED> instruction: 0xffffffff
 8002090:	ffffffff 			; <UNDEFINED> instruction: 0xffffffff
 8002094:	ffffffff 			; <UNDEFINED> instruction: 0xffffffff
 8002098:	ffffffff 			; <UNDEFINED> instruction: 0xffffffff
 800209c:	ffffffff 			; <UNDEFINED> instruction: 0xffffffff
 80020a0:	ffffffff 			; <UNDEFINED> instruction: 0xffffffff
 80020a4:	ffffffff 			; <UNDEFINED> instruction: 0xffffffff
 80020a8:	ffffffff 			; <UNDEFINED> instruction: 0xffffffff
 80020ac:	ffffffff 			; <UNDEFINED> instruction: 0xffffffff
 80020b0:	ffffffff 			; <UNDEFINED> instruction: 0xffffffff
 80020b4:	ffffffff 			; <UNDEFINED> instruction: 0xffffffff
 80020b8:	ffffffff 			; <UNDEFINED> instruction: 0xffffffff
 80020bc:	ffffffff 			; <UNDEFINED> instruction: 0xffffffff
 80020c0:	ffffffff 			; <UNDEFINED> instruction: 0xffffffff
 80020c4:	ffffffff 			; <UNDEFINED> instruction: 0xffffffff
 80020c8:	ffffffff 			; <UNDEFINED> instruction: 0xffffffff
 80020cc:	ffffffff 			; <UNDEFINED> instruction: 0xffffffff
 80020d0:	ffffffff 			; <UNDEFINED> instruction: 0xffffffff
 80020d4:	ffffffff 			; <UNDEFINED> instruction: 0xffffffff
 80020d8:	ffffffff 			; <UNDEFINED> instruction: 0xffffffff
 80020dc:	ffffffff 			; <UNDEFINED> instruction: 0xffffffff
 80020e0:	ffffffff 			; <UNDEFINED> instruction: 0xffffffff
 80020e4:	ffffffff 			; <UNDEFINED> instruction: 0xffffffff
 80020e8:	ffffffff 			; <UNDEFINED> instruction: 0xffffffff
 80020ec:	ffffffff 			; <UNDEFINED> instruction: 0xffffffff
 80020f0:	ffffffff 			; <UNDEFINED> instruction: 0xffffffff
 80020f4:	ffffffff 			; <UNDEFINED> instruction: 0xffffffff
 80020f8:	ffffffff 			; <UNDEFINED> instruction: 0xffffffff
 80020fc:	ffffffff 			; <UNDEFINED> instruction: 0xffffffff
 8002100:	ffffffff 			; <UNDEFINED> instruction: 0xffffffff
 8002104:	ffffffff 			; <UNDEFINED> instruction: 0xffffffff
 8002108:	ffffffff 			; <UNDEFINED> instruction: 0xffffffff
 800210c:	ffffffff 			; <UNDEFINED> instruction: 0xffffffff
 8002110:	ffffffff 			; <UNDEFINED> instruction: 0xffffffff
 8002114:	ffffffff 			; <UNDEFINED> instruction: 0xffffffff
 8002118:	ffffffff 			; <UNDEFINED> instruction: 0xffffffff
 800211c:	ffffffff 			; <UNDEFINED> instruction: 0xffffffff
 8002120:	ffffffff 			; <UNDEFINED> instruction: 0xffffffff
 8002124:	ffffffff 			; <UNDEFINED> instruction: 0xffffffff
 8002128:	ffffffff 			; <UNDEFINED> instruction: 0xffffffff
 800212c:	ffffffff 			; <UNDEFINED> instruction: 0xffffffff
 8002130:	ffffffff 			; <UNDEFINED> instruction: 0xffffffff
 8002134:	ffffffff 			; <UNDEFINED> instruction: 0xffffffff
 8002138:	ffffffff 			; <UNDEFINED> instruction: 0xffffffff
 800213c:	ffffffff 			; <UNDEFINED> instruction: 0xffffffff
 8002140:	ffffffff 			; <UNDEFINED> instruction: 0xffffffff
 8002144:	ffffffff 			; <UNDEFINED> instruction: 0xffffffff
 8002148:	ffffffff 			; <UNDEFINED> instruction: 0xffffffff
 800214c:	ffffffff 			; <UNDEFINED> instruction: 0xffffffff
 8002150:	ffffffff 			; <UNDEFINED> instruction: 0xffffffff
 8002154:	ffffffff 			; <UNDEFINED> instruction: 0xffffffff
 8002158:	ffffffff 			; <UNDEFINED> instruction: 0xffffffff
 800215c:	ffffffff 			; <UNDEFINED> instruction: 0xffffffff
 8002160:	ffffffff 			; <UNDEFINED> instruction: 0xffffffff
 8002164:	ffffffff 			; <UNDEFINED> instruction: 0xffffffff
 8002168:	ffffffff 			; <UNDEFINED> instruction: 0xffffffff
 800216c:	ffffffff 			; <UNDEFINED> instruction: 0xffffffff
 8002170:	ffffffff 			; <UNDEFINED> instruction: 0xffffffff
 8002174:	ffffffff 			; <UNDEFINED> instruction: 0xffffffff
 8002178:	ffffffff 			; <UNDEFINED> instruction: 0xffffffff
 800217c:	ffffffff 			; <UNDEFINED> instruction: 0xffffffff
 8002180:	ffffffff 			; <UNDEFINED> instruction: 0xffffffff
 8002184:	ffffffff 			; <UNDEFINED> instruction: 0xffffffff
 8002188:	ffffffff 			; <UNDEFINED> instruction: 0xffffffff
 800218c:	ffffffff 			; <UNDEFINED> instruction: 0xffffffff
 8002190:	ffffffff 			; <UNDEFINED> instruction: 0xffffffff
 8002194:	ffffffff 			; <UNDEFINED> instruction: 0xffffffff
 8002198:	ffffffff 			; <UNDEFINED> instruction: 0xffffffff
 800219c:	ffffffff 			; <UNDEFINED> instruction: 0xffffffff
 80021a0:	ffffffff 			; <UNDEFINED> instruction: 0xffffffff
 80021a4:	ffffffff 			; <UNDEFINED> instruction: 0xffffffff
 80021a8:	ffffffff 			; <UNDEFINED> instruction: 0xffffffff
 80021ac:	ffffffff 			; <UNDEFINED> instruction: 0xffffffff
 80021b0:	ffffffff 			; <UNDEFINED> instruction: 0xffffffff
 80021b4:	ffffffff 			; <UNDEFINED> instruction: 0xffffffff
 80021b8:	ffffffff 			; <UNDEFINED> instruction: 0xffffffff
 80021bc:	ffffffff 			; <UNDEFINED> instruction: 0xffffffff
 80021c0:	ffffffff 			; <UNDEFINED> instruction: 0xffffffff
 80021c4:	ffffffff 			; <UNDEFINED> instruction: 0xffffffff
 80021c8:	ffffffff 			; <UNDEFINED> instruction: 0xffffffff
 80021cc:	ffffffff 			; <UNDEFINED> instruction: 0xffffffff
 80021d0:	ffffffff 			; <UNDEFINED> instruction: 0xffffffff
 80021d4:	ffffffff 			; <UNDEFINED> instruction: 0xffffffff
 80021d8:	ffffffff 			; <UNDEFINED> instruction: 0xffffffff
 80021dc:	ffffffff 			; <UNDEFINED> instruction: 0xffffffff
 80021e0:	ffffffff 			; <UNDEFINED> instruction: 0xffffffff
 80021e4:	ffffffff 			; <UNDEFINED> instruction: 0xffffffff
 80021e8:	ffffffff 			; <UNDEFINED> instruction: 0xffffffff
 80021ec:	ffffffff 			; <UNDEFINED> instruction: 0xffffffff
 80021f0:	ffffffff 			; <UNDEFINED> instruction: 0xffffffff
 80021f4:	ffffffff 			; <UNDEFINED> instruction: 0xffffffff
 80021f8:	ffffffff 			; <UNDEFINED> instruction: 0xffffffff
 80021fc:	ffffffff 			; <UNDEFINED> instruction: 0xffffffff
 8002200:	ffffffff 			; <UNDEFINED> instruction: 0xffffffff
 8002204:	ffffffff 			; <UNDEFINED> instruction: 0xffffffff
 8002208:	ffffffff 			; <UNDEFINED> instruction: 0xffffffff
 800220c:	ffffffff 			; <UNDEFINED> instruction: 0xffffffff
 8002210:	ffffffff 			; <UNDEFINED> instruction: 0xffffffff
 8002214:	ffffffff 			; <UNDEFINED> instruction: 0xffffffff
 8002218:	ffffffff 			; <UNDEFINED> instruction: 0xffffffff
 800221c:	ffffffff 			; <UNDEFINED> instruction: 0xffffffff
 8002220:	ffffffff 			; <UNDEFINED> instruction: 0xffffffff
 8002224:	ffffffff 			; <UNDEFINED> instruction: 0xffffffff
 8002228:	ffffffff 			; <UNDEFINED> instruction: 0xffffffff
 800222c:	ffffffff 			; <UNDEFINED> instruction: 0xffffffff
 8002230:	ffffffff 			; <UNDEFINED> instruction: 0xffffffff
 8002234:	ffffffff 			; <UNDEFINED> instruction: 0xffffffff
 8002238:	ffffffff 			; <UNDEFINED> instruction: 0xffffffff
 800223c:	ffffffff 			; <UNDEFINED> instruction: 0xffffffff
 8002240:	ffffffff 			; <UNDEFINED> instruction: 0xffffffff
 8002244:	ffffffff 			; <UNDEFINED> instruction: 0xffffffff
 8002248:	ffffffff 			; <UNDEFINED> instruction: 0xffffffff
 800224c:	ffffffff 			; <UNDEFINED> instruction: 0xffffffff
 8002250:	ffffffff 			; <UNDEFINED> instruction: 0xffffffff
 8002254:	ffffffff 			; <UNDEFINED> instruction: 0xffffffff
 8002258:	ffffffff 			; <UNDEFINED> instruction: 0xffffffff
 800225c:	ffffffff 			; <UNDEFINED> instruction: 0xffffffff
 8002260:	ffffffff 			; <UNDEFINED> instruction: 0xffffffff
 8002264:	ffffffff 			; <UNDEFINED> instruction: 0xffffffff
 8002268:	ffffffff 			; <UNDEFINED> instruction: 0xffffffff
 800226c:	ffffffff 			; <UNDEFINED> instruction: 0xffffffff
 8002270:	ffffffff 			; <UNDEFINED> instruction: 0xffffffff
 8002274:	ffffffff 			; <UNDEFINED> instruction: 0xffffffff
 8002278:	ffffffff 			; <UNDEFINED> instruction: 0xffffffff
 800227c:	ffffffff 			; <UNDEFINED> instruction: 0xffffffff
 8002280:	ffffffff 			; <UNDEFINED> instruction: 0xffffffff
 8002284:	ffffffff 			; <UNDEFINED> instruction: 0xffffffff
 8002288:	ffffffff 			; <UNDEFINED> instruction: 0xffffffff
 800228c:	ffffffff 			; <UNDEFINED> instruction: 0xffffffff
 8002290:	ffffffff 			; <UNDEFINED> instruction: 0xffffffff
 8002294:	ffffffff 			; <UNDEFINED> instruction: 0xffffffff
 8002298:	ffffffff 			; <UNDEFINED> instruction: 0xffffffff
 800229c:	ffffffff 			; <UNDEFINED> instruction: 0xffffffff
 80022a0:	ffffffff 			; <UNDEFINED> instruction: 0xffffffff
 80022a4:	ffffffff 			; <UNDEFINED> instruction: 0xffffffff
 80022a8:	ffffffff 			; <UNDEFINED> instruction: 0xffffffff
 80022ac:	ffffffff 			; <UNDEFINED> instruction: 0xffffffff
 80022b0:	ffffffff 			; <UNDEFINED> instruction: 0xffffffff
 80022b4:	ffffffff 			; <UNDEFINED> instruction: 0xffffffff
 80022b8:	ffffffff 			; <UNDEFINED> instruction: 0xffffffff
 80022bc:	ffffffff 			; <UNDEFINED> instruction: 0xffffffff
 80022c0:	ffffffff 			; <UNDEFINED> instruction: 0xffffffff
 80022c4:	ffffffff 			; <UNDEFINED> instruction: 0xffffffff
 80022c8:	ffffffff 			; <UNDEFINED> instruction: 0xffffffff
 80022cc:	ffffffff 			; <UNDEFINED> instruction: 0xffffffff
 80022d0:	ffffffff 			; <UNDEFINED> instruction: 0xffffffff
 80022d4:	ffffffff 			; <UNDEFINED> instruction: 0xffffffff
 80022d8:	ffffffff 			; <UNDEFINED> instruction: 0xffffffff
 80022dc:	ffffffff 			; <UNDEFINED> instruction: 0xffffffff
 80022e0:	ffffffff 			; <UNDEFINED> instruction: 0xffffffff
 80022e4:	ffffffff 			; <UNDEFINED> instruction: 0xffffffff
 80022e8:	ffffffff 			; <UNDEFINED> instruction: 0xffffffff
 80022ec:	ffffffff 			; <UNDEFINED> instruction: 0xffffffff
 80022f0:	ffffffff 			; <UNDEFINED> instruction: 0xffffffff
 80022f4:	ffffffff 			; <UNDEFINED> instruction: 0xffffffff
 80022f8:	ffffffff 			; <UNDEFINED> instruction: 0xffffffff
 80022fc:	ffffffff 			; <UNDEFINED> instruction: 0xffffffff
 8002300:	ffffffff 			; <UNDEFINED> instruction: 0xffffffff
 8002304:	ffffffff 			; <UNDEFINED> instruction: 0xffffffff
 8002308:	ffffffff 			; <UNDEFINED> instruction: 0xffffffff
 800230c:	ffffffff 			; <UNDEFINED> instruction: 0xffffffff
 8002310:	ffffffff 			; <UNDEFINED> instruction: 0xffffffff
 8002314:	ffffffff 			; <UNDEFINED> instruction: 0xffffffff
 8002318:	ffffffff 			; <UNDEFINED> instruction: 0xffffffff
 800231c:	ffffffff 			; <UNDEFINED> instruction: 0xffffffff
 8002320:	ffffffff 			; <UNDEFINED> instruction: 0xffffffff
 8002324:	ffffffff 			; <UNDEFINED> instruction: 0xffffffff
 8002328:	ffffffff 			; <UNDEFINED> instruction: 0xffffffff
 800232c:	ffffffff 			; <UNDEFINED> instruction: 0xffffffff
 8002330:	ffffffff 			; <UNDEFINED> instruction: 0xffffffff
 8002334:	ffffffff 			; <UNDEFINED> instruction: 0xffffffff
 8002338:	ffffffff 			; <UNDEFINED> instruction: 0xffffffff
 800233c:	ffffffff 			; <UNDEFINED> instruction: 0xffffffff
 8002340:	ffffffff 			; <UNDEFINED> instruction: 0xffffffff
 8002344:	ffffffff 			; <UNDEFINED> instruction: 0xffffffff
 8002348:	ffffffff 			; <UNDEFINED> instruction: 0xffffffff
 800234c:	ffffffff 			; <UNDEFINED> instruction: 0xffffffff
 8002350:	ffffffff 			; <UNDEFINED> instruction: 0xffffffff
 8002354:	ffffffff 			; <UNDEFINED> instruction: 0xffffffff
 8002358:	ffffffff 			; <UNDEFINED> instruction: 0xffffffff
 800235c:	ffffffff 			; <UNDEFINED> instruction: 0xffffffff
 8002360:	ffffffff 			; <UNDEFINED> instruction: 0xffffffff
 8002364:	ffffffff 			; <UNDEFINED> instruction: 0xffffffff
 8002368:	ffffffff 			; <UNDEFINED> instruction: 0xffffffff
 800236c:	ffffffff 			; <UNDEFINED> instruction: 0xffffffff
 8002370:	ffffffff 			; <UNDEFINED> instruction: 0xffffffff
 8002374:	ffffffff 			; <UNDEFINED> instruction: 0xffffffff
 8002378:	ffffffff 			; <UNDEFINED> instruction: 0xffffffff
 800237c:	ffffffff 			; <UNDEFINED> instruction: 0xffffffff
 8002380:	ffffffff 			; <UNDEFINED> instruction: 0xffffffff
 8002384:	ffffffff 			; <UNDEFINED> instruction: 0xffffffff
 8002388:	ffffffff 			; <UNDEFINED> instruction: 0xffffffff
 800238c:	ffffffff 			; <UNDEFINED> instruction: 0xffffffff
 8002390:	ffffffff 			; <UNDEFINED> instruction: 0xffffffff
 8002394:	ffffffff 			; <UNDEFINED> instruction: 0xffffffff
 8002398:	ffffffff 			; <UNDEFINED> instruction: 0xffffffff
 800239c:	ffffffff 			; <UNDEFINED> instruction: 0xffffffff
 80023a0:	ffffffff 			; <UNDEFINED> instruction: 0xffffffff
 80023a4:	ffffffff 			; <UNDEFINED> instruction: 0xffffffff
 80023a8:	ffffffff 			; <UNDEFINED> instruction: 0xffffffff
 80023ac:	ffffffff 			; <UNDEFINED> instruction: 0xffffffff
 80023b0:	ffffffff 			; <UNDEFINED> instruction: 0xffffffff
 80023b4:	ffffffff 			; <UNDEFINED> instruction: 0xffffffff
 80023b8:	ffffffff 			; <UNDEFINED> instruction: 0xffffffff
 80023bc:	ffffffff 			; <UNDEFINED> instruction: 0xffffffff
 80023c0:	ffffffff 			; <UNDEFINED> instruction: 0xffffffff
 80023c4:	ffffffff 			; <UNDEFINED> instruction: 0xffffffff
 80023c8:	ffffffff 			; <UNDEFINED> instruction: 0xffffffff
 80023cc:	ffffffff 			; <UNDEFINED> instruction: 0xffffffff
 80023d0:	ffffffff 			; <UNDEFINED> instruction: 0xffffffff
 80023d4:	ffffffff 			; <UNDEFINED> instruction: 0xffffffff
 80023d8:	ffffffff 			; <UNDEFINED> instruction: 0xffffffff
 80023dc:	ffffffff 			; <UNDEFINED> instruction: 0xffffffff
 80023e0:	ffffffff 			; <UNDEFINED> instruction: 0xffffffff
 80023e4:	ffffffff 			; <UNDEFINED> instruction: 0xffffffff
 80023e8:	ffffffff 			; <UNDEFINED> instruction: 0xffffffff
 80023ec:	ffffffff 			; <UNDEFINED> instruction: 0xffffffff
 80023f0:	ffffffff 			; <UNDEFINED> instruction: 0xffffffff
 80023f4:	ffffffff 			; <UNDEFINED> instruction: 0xffffffff
 80023f8:	ffffffff 			; <UNDEFINED> instruction: 0xffffffff
 80023fc:	ffffffff 			; <UNDEFINED> instruction: 0xffffffff
 8002400:	ffffffff 			; <UNDEFINED> instruction: 0xffffffff
 8002404:	ffffffff 			; <UNDEFINED> instruction: 0xffffffff
 8002408:	ffffffff 			; <UNDEFINED> instruction: 0xffffffff
 800240c:	ffffffff 			; <UNDEFINED> instruction: 0xffffffff
 8002410:	ffffffff 			; <UNDEFINED> instruction: 0xffffffff
 8002414:	ffffffff 			; <UNDEFINED> instruction: 0xffffffff
 8002418:	ffffffff 			; <UNDEFINED> instruction: 0xffffffff
 800241c:	ffffffff 			; <UNDEFINED> instruction: 0xffffffff
 8002420:	ffffffff 			; <UNDEFINED> instruction: 0xffffffff
 8002424:	ffffffff 			; <UNDEFINED> instruction: 0xffffffff
 8002428:	ffffffff 			; <UNDEFINED> instruction: 0xffffffff
 800242c:	ffffffff 			; <UNDEFINED> instruction: 0xffffffff
 8002430:	ffffffff 			; <UNDEFINED> instruction: 0xffffffff
 8002434:	ffffffff 			; <UNDEFINED> instruction: 0xffffffff
 8002438:	ffffffff 			; <UNDEFINED> instruction: 0xffffffff
 800243c:	ffffffff 			; <UNDEFINED> instruction: 0xffffffff
 8002440:	ffffffff 			; <UNDEFINED> instruction: 0xffffffff
 8002444:	ffffffff 			; <UNDEFINED> instruction: 0xffffffff
 8002448:	ffffffff 			; <UNDEFINED> instruction: 0xffffffff
 800244c:	ffffffff 			; <UNDEFINED> instruction: 0xffffffff
 8002450:	ffffffff 			; <UNDEFINED> instruction: 0xffffffff
 8002454:	ffffffff 			; <UNDEFINED> instruction: 0xffffffff
 8002458:	ffffffff 			; <UNDEFINED> instruction: 0xffffffff
 800245c:	ffffffff 			; <UNDEFINED> instruction: 0xffffffff
 8002460:	ffffffff 			; <UNDEFINED> instruction: 0xffffffff
 8002464:	ffffffff 			; <UNDEFINED> instruction: 0xffffffff
 8002468:	ffffffff 			; <UNDEFINED> instruction: 0xffffffff
 800246c:	ffffffff 			; <UNDEFINED> instruction: 0xffffffff
 8002470:	ffffffff 			; <UNDEFINED> instruction: 0xffffffff
 8002474:	ffffffff 			; <UNDEFINED> instruction: 0xffffffff
 8002478:	ffffffff 			; <UNDEFINED> instruction: 0xffffffff
 800247c:	ffffffff 			; <UNDEFINED> instruction: 0xffffffff
 8002480:	ffffffff 			; <UNDEFINED> instruction: 0xffffffff
 8002484:	ffffffff 			; <UNDEFINED> instruction: 0xffffffff
 8002488:	ffffffff 			; <UNDEFINED> instruction: 0xffffffff
 800248c:	ffffffff 			; <UNDEFINED> instruction: 0xffffffff
 8002490:	ffffffff 			; <UNDEFINED> instruction: 0xffffffff
 8002494:	ffffffff 			; <UNDEFINED> instruction: 0xffffffff
 8002498:	ffffffff 			; <UNDEFINED> instruction: 0xffffffff
 800249c:	ffffffff 			; <UNDEFINED> instruction: 0xffffffff
 80024a0:	ffffffff 			; <UNDEFINED> instruction: 0xffffffff
 80024a4:	ffffffff 			; <UNDEFINED> instruction: 0xffffffff
 80024a8:	ffffffff 			; <UNDEFINED> instruction: 0xffffffff
 80024ac:	ffffffff 			; <UNDEFINED> instruction: 0xffffffff
 80024b0:	ffffffff 			; <UNDEFINED> instruction: 0xffffffff
 80024b4:	ffffffff 			; <UNDEFINED> instruction: 0xffffffff
 80024b8:	ffffffff 			; <UNDEFINED> instruction: 0xffffffff
 80024bc:	ffffffff 			; <UNDEFINED> instruction: 0xffffffff
 80024c0:	ffffffff 			; <UNDEFINED> instruction: 0xffffffff
 80024c4:	ffffffff 			; <UNDEFINED> instruction: 0xffffffff
 80024c8:	ffffffff 			; <UNDEFINED> instruction: 0xffffffff
 80024cc:	ffffffff 			; <UNDEFINED> instruction: 0xffffffff
 80024d0:	ffffffff 			; <UNDEFINED> instruction: 0xffffffff
 80024d4:	ffffffff 			; <UNDEFINED> instruction: 0xffffffff
 80024d8:	ffffffff 			; <UNDEFINED> instruction: 0xffffffff
 80024dc:	ffffffff 			; <UNDEFINED> instruction: 0xffffffff
 80024e0:	ffffffff 			; <UNDEFINED> instruction: 0xffffffff
 80024e4:	ffffffff 			; <UNDEFINED> instruction: 0xffffffff
 80024e8:	ffffffff 			; <UNDEFINED> instruction: 0xffffffff
 80024ec:	ffffffff 			; <UNDEFINED> instruction: 0xffffffff
 80024f0:	ffffffff 			; <UNDEFINED> instruction: 0xffffffff
 80024f4:	ffffffff 			; <UNDEFINED> instruction: 0xffffffff
 80024f8:	ffffffff 			; <UNDEFINED> instruction: 0xffffffff
 80024fc:	ffffffff 			; <UNDEFINED> instruction: 0xffffffff
 8002500:	ffffffff 			; <UNDEFINED> instruction: 0xffffffff
 8002504:	ffffffff 			; <UNDEFINED> instruction: 0xffffffff
 8002508:	ffffffff 			; <UNDEFINED> instruction: 0xffffffff
 800250c:	ffffffff 			; <UNDEFINED> instruction: 0xffffffff
 8002510:	ffffffff 			; <UNDEFINED> instruction: 0xffffffff
 8002514:	ffffffff 			; <UNDEFINED> instruction: 0xffffffff
 8002518:	ffffffff 			; <UNDEFINED> instruction: 0xffffffff
 800251c:	ffffffff 			; <UNDEFINED> instruction: 0xffffffff
 8002520:	ffffffff 			; <UNDEFINED> instruction: 0xffffffff
 8002524:	ffffffff 			; <UNDEFINED> instruction: 0xffffffff
 8002528:	ffffffff 			; <UNDEFINED> instruction: 0xffffffff
 800252c:	ffffffff 			; <UNDEFINED> instruction: 0xffffffff
 8002530:	ffffffff 			; <UNDEFINED> instruction: 0xffffffff
 8002534:	ffffffff 			; <UNDEFINED> instruction: 0xffffffff
 8002538:	ffffffff 			; <UNDEFINED> instruction: 0xffffffff
 800253c:	ffffffff 			; <UNDEFINED> instruction: 0xffffffff
 8002540:	ffffffff 			; <UNDEFINED> instruction: 0xffffffff
 8002544:	ffffffff 			; <UNDEFINED> instruction: 0xffffffff
 8002548:	ffffffff 			; <UNDEFINED> instruction: 0xffffffff
 800254c:	ffffffff 			; <UNDEFINED> instruction: 0xffffffff
 8002550:	ffffffff 			; <UNDEFINED> instruction: 0xffffffff
 8002554:	ffffffff 			; <UNDEFINED> instruction: 0xffffffff
 8002558:	ffffffff 			; <UNDEFINED> instruction: 0xffffffff
 800255c:	ffffffff 			; <UNDEFINED> instruction: 0xffffffff
 8002560:	ffffffff 			; <UNDEFINED> instruction: 0xffffffff
 8002564:	ffffffff 			; <UNDEFINED> instruction: 0xffffffff
 8002568:	ffffffff 			; <UNDEFINED> instruction: 0xffffffff
 800256c:	ffffffff 			; <UNDEFINED> instruction: 0xffffffff
 8002570:	ffffffff 			; <UNDEFINED> instruction: 0xffffffff
 8002574:	ffffffff 			; <UNDEFINED> instruction: 0xffffffff
 8002578:	ffffffff 			; <UNDEFINED> instruction: 0xffffffff
 800257c:	ffffffff 			; <UNDEFINED> instruction: 0xffffffff
 8002580:	ffffffff 			; <UNDEFINED> instruction: 0xffffffff
 8002584:	ffffffff 			; <UNDEFINED> instruction: 0xffffffff
 8002588:	ffffffff 			; <UNDEFINED> instruction: 0xffffffff
 800258c:	ffffffff 			; <UNDEFINED> instruction: 0xffffffff
 8002590:	ffffffff 			; <UNDEFINED> instruction: 0xffffffff
 8002594:	ffffffff 			; <UNDEFINED> instruction: 0xffffffff
 8002598:	ffffffff 			; <UNDEFINED> instruction: 0xffffffff
 800259c:	ffffffff 			; <UNDEFINED> instruction: 0xffffffff
 80025a0:	ffffffff 			; <UNDEFINED> instruction: 0xffffffff
 80025a4:	ffffffff 			; <UNDEFINED> instruction: 0xffffffff
 80025a8:	ffffffff 			; <UNDEFINED> instruction: 0xffffffff
 80025ac:	ffffffff 			; <UNDEFINED> instruction: 0xffffffff
 80025b0:	ffffffff 			; <UNDEFINED> instruction: 0xffffffff
 80025b4:	ffffffff 			; <UNDEFINED> instruction: 0xffffffff
 80025b8:	ffffffff 			; <UNDEFINED> instruction: 0xffffffff
 80025bc:	ffffffff 			; <UNDEFINED> instruction: 0xffffffff
 80025c0:	ffffffff 			; <UNDEFINED> instruction: 0xffffffff
 80025c4:	ffffffff 			; <UNDEFINED> instruction: 0xffffffff
 80025c8:	ffffffff 			; <UNDEFINED> instruction: 0xffffffff
 80025cc:	ffffffff 			; <UNDEFINED> instruction: 0xffffffff
 80025d0:	ffffffff 			; <UNDEFINED> instruction: 0xffffffff
 80025d4:	ffffffff 			; <UNDEFINED> instruction: 0xffffffff
 80025d8:	ffffffff 			; <UNDEFINED> instruction: 0xffffffff
 80025dc:	ffffffff 			; <UNDEFINED> instruction: 0xffffffff
 80025e0:	ffffffff 			; <UNDEFINED> instruction: 0xffffffff
 80025e4:	ffffffff 			; <UNDEFINED> instruction: 0xffffffff
 80025e8:	ffffffff 			; <UNDEFINED> instruction: 0xffffffff
 80025ec:	ffffffff 			; <UNDEFINED> instruction: 0xffffffff
 80025f0:	ffffffff 			; <UNDEFINED> instruction: 0xffffffff
 80025f4:	ffffffff 			; <UNDEFINED> instruction: 0xffffffff
 80025f8:	ffffffff 			; <UNDEFINED> instruction: 0xffffffff
 80025fc:	ffffffff 			; <UNDEFINED> instruction: 0xffffffff
 8002600:	ffffffff 			; <UNDEFINED> instruction: 0xffffffff
 8002604:	ffffffff 			; <UNDEFINED> instruction: 0xffffffff
 8002608:	ffffffff 			; <UNDEFINED> instruction: 0xffffffff
 800260c:	ffffffff 			; <UNDEFINED> instruction: 0xffffffff
 8002610:	ffffffff 			; <UNDEFINED> instruction: 0xffffffff
 8002614:	ffffffff 			; <UNDEFINED> instruction: 0xffffffff
 8002618:	ffffffff 			; <UNDEFINED> instruction: 0xffffffff
 800261c:	ffffffff 			; <UNDEFINED> instruction: 0xffffffff
 8002620:	ffffffff 			; <UNDEFINED> instruction: 0xffffffff
 8002624:	ffffffff 			; <UNDEFINED> instruction: 0xffffffff
 8002628:	ffffffff 			; <UNDEFINED> instruction: 0xffffffff
 800262c:	ffffffff 			; <UNDEFINED> instruction: 0xffffffff
 8002630:	ffffffff 			; <UNDEFINED> instruction: 0xffffffff
 8002634:	ffffffff 			; <UNDEFINED> instruction: 0xffffffff
 8002638:	ffffffff 			; <UNDEFINED> instruction: 0xffffffff
 800263c:	ffffffff 			; <UNDEFINED> instruction: 0xffffffff
 8002640:	ffffffff 			; <UNDEFINED> instruction: 0xffffffff
 8002644:	ffffffff 			; <UNDEFINED> instruction: 0xffffffff
 8002648:	ffffffff 			; <UNDEFINED> instruction: 0xffffffff
 800264c:	ffffffff 			; <UNDEFINED> instruction: 0xffffffff
 8002650:	ffffffff 			; <UNDEFINED> instruction: 0xffffffff
 8002654:	ffffffff 			; <UNDEFINED> instruction: 0xffffffff
 8002658:	ffffffff 			; <UNDEFINED> instruction: 0xffffffff
 800265c:	ffffffff 			; <UNDEFINED> instruction: 0xffffffff
 8002660:	ffffffff 			; <UNDEFINED> instruction: 0xffffffff
 8002664:	ffffffff 			; <UNDEFINED> instruction: 0xffffffff
 8002668:	ffffffff 			; <UNDEFINED> instruction: 0xffffffff
 800266c:	ffffffff 			; <UNDEFINED> instruction: 0xffffffff
 8002670:	ffffffff 			; <UNDEFINED> instruction: 0xffffffff
 8002674:	ffffffff 			; <UNDEFINED> instruction: 0xffffffff
 8002678:	ffffffff 			; <UNDEFINED> instruction: 0xffffffff
 800267c:	ffffffff 			; <UNDEFINED> instruction: 0xffffffff
 8002680:	ffffffff 			; <UNDEFINED> instruction: 0xffffffff
 8002684:	ffffffff 			; <UNDEFINED> instruction: 0xffffffff
 8002688:	ffffffff 			; <UNDEFINED> instruction: 0xffffffff
 800268c:	ffffffff 			; <UNDEFINED> instruction: 0xffffffff
 8002690:	ffffffff 			; <UNDEFINED> instruction: 0xffffffff
 8002694:	ffffffff 			; <UNDEFINED> instruction: 0xffffffff
 8002698:	ffffffff 			; <UNDEFINED> instruction: 0xffffffff
 800269c:	ffffffff 			; <UNDEFINED> instruction: 0xffffffff
 80026a0:	ffffffff 			; <UNDEFINED> instruction: 0xffffffff
 80026a4:	ffffffff 			; <UNDEFINED> instruction: 0xffffffff
 80026a8:	ffffffff 			; <UNDEFINED> instruction: 0xffffffff
 80026ac:	ffffffff 			; <UNDEFINED> instruction: 0xffffffff
 80026b0:	ffffffff 			; <UNDEFINED> instruction: 0xffffffff
 80026b4:	ffffffff 			; <UNDEFINED> instruction: 0xffffffff
 80026b8:	ffffffff 			; <UNDEFINED> instruction: 0xffffffff
 80026bc:	ffffffff 			; <UNDEFINED> instruction: 0xffffffff
 80026c0:	ffffffff 			; <UNDEFINED> instruction: 0xffffffff
 80026c4:	ffffffff 			; <UNDEFINED> instruction: 0xffffffff
 80026c8:	ffffffff 			; <UNDEFINED> instruction: 0xffffffff
 80026cc:	ffffffff 			; <UNDEFINED> instruction: 0xffffffff
 80026d0:	ffffffff 			; <UNDEFINED> instruction: 0xffffffff
 80026d4:	ffffffff 			; <UNDEFINED> instruction: 0xffffffff
 80026d8:	ffffffff 			; <UNDEFINED> instruction: 0xffffffff
 80026dc:	ffffffff 			; <UNDEFINED> instruction: 0xffffffff
 80026e0:	ffffffff 			; <UNDEFINED> instruction: 0xffffffff
 80026e4:	ffffffff 			; <UNDEFINED> instruction: 0xffffffff
 80026e8:	ffffffff 			; <UNDEFINED> instruction: 0xffffffff
 80026ec:	ffffffff 			; <UNDEFINED> instruction: 0xffffffff
 80026f0:	ffffffff 			; <UNDEFINED> instruction: 0xffffffff
 80026f4:	ffffffff 			; <UNDEFINED> instruction: 0xffffffff
 80026f8:	ffffffff 			; <UNDEFINED> instruction: 0xffffffff
 80026fc:	ffffffff 			; <UNDEFINED> instruction: 0xffffffff
 8002700:	ffffffff 			; <UNDEFINED> instruction: 0xffffffff
 8002704:	ffffffff 			; <UNDEFINED> instruction: 0xffffffff
 8002708:	ffffffff 			; <UNDEFINED> instruction: 0xffffffff
 800270c:	ffffffff 			; <UNDEFINED> instruction: 0xffffffff
 8002710:	ffffffff 			; <UNDEFINED> instruction: 0xffffffff
 8002714:	ffffffff 			; <UNDEFINED> instruction: 0xffffffff
 8002718:	ffffffff 			; <UNDEFINED> instruction: 0xffffffff
 800271c:	ffffffff 			; <UNDEFINED> instruction: 0xffffffff
 8002720:	ffffffff 			; <UNDEFINED> instruction: 0xffffffff
 8002724:	ffffffff 			; <UNDEFINED> instruction: 0xffffffff
 8002728:	ffffffff 			; <UNDEFINED> instruction: 0xffffffff
 800272c:	ffffffff 			; <UNDEFINED> instruction: 0xffffffff
 8002730:	ffffffff 			; <UNDEFINED> instruction: 0xffffffff
 8002734:	ffffffff 			; <UNDEFINED> instruction: 0xffffffff
 8002738:	ffffffff 			; <UNDEFINED> instruction: 0xffffffff
 800273c:	ffffffff 			; <UNDEFINED> instruction: 0xffffffff
 8002740:	ffffffff 			; <UNDEFINED> instruction: 0xffffffff
 8002744:	ffffffff 			; <UNDEFINED> instruction: 0xffffffff
 8002748:	ffffffff 			; <UNDEFINED> instruction: 0xffffffff
 800274c:	ffffffff 			; <UNDEFINED> instruction: 0xffffffff
 8002750:	ffffffff 			; <UNDEFINED> instruction: 0xffffffff
 8002754:	ffffffff 			; <UNDEFINED> instruction: 0xffffffff
 8002758:	ffffffff 			; <UNDEFINED> instruction: 0xffffffff
 800275c:	ffffffff 			; <UNDEFINED> instruction: 0xffffffff
 8002760:	ffffffff 			; <UNDEFINED> instruction: 0xffffffff
 8002764:	ffffffff 			; <UNDEFINED> instruction: 0xffffffff
 8002768:	ffffffff 			; <UNDEFINED> instruction: 0xffffffff
 800276c:	ffffffff 			; <UNDEFINED> instruction: 0xffffffff
 8002770:	ffffffff 			; <UNDEFINED> instruction: 0xffffffff
 8002774:	ffffffff 			; <UNDEFINED> instruction: 0xffffffff
 8002778:	ffffffff 			; <UNDEFINED> instruction: 0xffffffff
 800277c:	ffffffff 			; <UNDEFINED> instruction: 0xffffffff
 8002780:	ffffffff 			; <UNDEFINED> instruction: 0xffffffff
 8002784:	ffffffff 			; <UNDEFINED> instruction: 0xffffffff
 8002788:	ffffffff 			; <UNDEFINED> instruction: 0xffffffff
 800278c:	ffffffff 			; <UNDEFINED> instruction: 0xffffffff
 8002790:	ffffffff 			; <UNDEFINED> instruction: 0xffffffff
 8002794:	ffffffff 			; <UNDEFINED> instruction: 0xffffffff
 8002798:	ffffffff 			; <UNDEFINED> instruction: 0xffffffff
 800279c:	ffffffff 			; <UNDEFINED> instruction: 0xffffffff
 80027a0:	ffffffff 			; <UNDEFINED> instruction: 0xffffffff
 80027a4:	ffffffff 			; <UNDEFINED> instruction: 0xffffffff
 80027a8:	ffffffff 			; <UNDEFINED> instruction: 0xffffffff
 80027ac:	ffffffff 			; <UNDEFINED> instruction: 0xffffffff
 80027b0:	ffffffff 			; <UNDEFINED> instruction: 0xffffffff
 80027b4:	ffffffff 			; <UNDEFINED> instruction: 0xffffffff
 80027b8:	ffffffff 			; <UNDEFINED> instruction: 0xffffffff
 80027bc:	ffffffff 			; <UNDEFINED> instruction: 0xffffffff
 80027c0:	ffffffff 			; <UNDEFINED> instruction: 0xffffffff
 80027c4:	ffffffff 			; <UNDEFINED> instruction: 0xffffffff
 80027c8:	ffffffff 			; <UNDEFINED> instruction: 0xffffffff
 80027cc:	ffffffff 			; <UNDEFINED> instruction: 0xffffffff
 80027d0:	ffffffff 			; <UNDEFINED> instruction: 0xffffffff
 80027d4:	ffffffff 			; <UNDEFINED> instruction: 0xffffffff
 80027d8:	ffffffff 			; <UNDEFINED> instruction: 0xffffffff
 80027dc:	ffffffff 			; <UNDEFINED> instruction: 0xffffffff
 80027e0:	ffffffff 			; <UNDEFINED> instruction: 0xffffffff
 80027e4:	ffffffff 			; <UNDEFINED> instruction: 0xffffffff
 80027e8:	ffffffff 			; <UNDEFINED> instruction: 0xffffffff
 80027ec:	ffffffff 			; <UNDEFINED> instruction: 0xffffffff
 80027f0:	ffffffff 			; <UNDEFINED> instruction: 0xffffffff
 80027f4:	ffffffff 			; <UNDEFINED> instruction: 0xffffffff
 80027f8:	ffffffff 			; <UNDEFINED> instruction: 0xffffffff
 80027fc:	ffffffff 			; <UNDEFINED> instruction: 0xffffffff
 8002800:	ffffffff 			; <UNDEFINED> instruction: 0xffffffff
 8002804:	ffffffff 			; <UNDEFINED> instruction: 0xffffffff
 8002808:	ffffffff 			; <UNDEFINED> instruction: 0xffffffff
 800280c:	ffffffff 			; <UNDEFINED> instruction: 0xffffffff
 8002810:	ffffffff 			; <UNDEFINED> instruction: 0xffffffff
 8002814:	ffffffff 			; <UNDEFINED> instruction: 0xffffffff
 8002818:	ffffffff 			; <UNDEFINED> instruction: 0xffffffff
 800281c:	ffffffff 			; <UNDEFINED> instruction: 0xffffffff
 8002820:	ffffffff 			; <UNDEFINED> instruction: 0xffffffff
 8002824:	ffffffff 			; <UNDEFINED> instruction: 0xffffffff
 8002828:	ffffffff 			; <UNDEFINED> instruction: 0xffffffff
 800282c:	ffffffff 			; <UNDEFINED> instruction: 0xffffffff
 8002830:	ffffffff 			; <UNDEFINED> instruction: 0xffffffff
 8002834:	ffffffff 			; <UNDEFINED> instruction: 0xffffffff
 8002838:	ffffffff 			; <UNDEFINED> instruction: 0xffffffff
 800283c:	ffffffff 			; <UNDEFINED> instruction: 0xffffffff
 8002840:	ffffffff 			; <UNDEFINED> instruction: 0xffffffff
 8002844:	ffffffff 			; <UNDEFINED> instruction: 0xffffffff
 8002848:	ffffffff 			; <UNDEFINED> instruction: 0xffffffff
 800284c:	ffffffff 			; <UNDEFINED> instruction: 0xffffffff
 8002850:	ffffffff 			; <UNDEFINED> instruction: 0xffffffff
 8002854:	ffffffff 			; <UNDEFINED> instruction: 0xffffffff
 8002858:	ffffffff 			; <UNDEFINED> instruction: 0xffffffff
 800285c:	ffffffff 			; <UNDEFINED> instruction: 0xffffffff
 8002860:	ffffffff 			; <UNDEFINED> instruction: 0xffffffff
 8002864:	ffffffff 			; <UNDEFINED> instruction: 0xffffffff
 8002868:	ffffffff 			; <UNDEFINED> instruction: 0xffffffff
 800286c:	ffffffff 			; <UNDEFINED> instruction: 0xffffffff
 8002870:	ffffffff 			; <UNDEFINED> instruction: 0xffffffff
 8002874:	ffffffff 			; <UNDEFINED> instruction: 0xffffffff
 8002878:	ffffffff 			; <UNDEFINED> instruction: 0xffffffff
 800287c:	ffffffff 			; <UNDEFINED> instruction: 0xffffffff
 8002880:	ffffffff 			; <UNDEFINED> instruction: 0xffffffff
 8002884:	ffffffff 			; <UNDEFINED> instruction: 0xffffffff
 8002888:	ffffffff 			; <UNDEFINED> instruction: 0xffffffff
 800288c:	ffffffff 			; <UNDEFINED> instruction: 0xffffffff
 8002890:	ffffffff 			; <UNDEFINED> instruction: 0xffffffff
 8002894:	ffffffff 			; <UNDEFINED> instruction: 0xffffffff
 8002898:	ffffffff 			; <UNDEFINED> instruction: 0xffffffff
 800289c:	ffffffff 			; <UNDEFINED> instruction: 0xffffffff
 80028a0:	ffffffff 			; <UNDEFINED> instruction: 0xffffffff
 80028a4:	ffffffff 			; <UNDEFINED> instruction: 0xffffffff
 80028a8:	ffffffff 			; <UNDEFINED> instruction: 0xffffffff
 80028ac:	ffffffff 			; <UNDEFINED> instruction: 0xffffffff
 80028b0:	ffffffff 			; <UNDEFINED> instruction: 0xffffffff
 80028b4:	ffffffff 			; <UNDEFINED> instruction: 0xffffffff
 80028b8:	ffffffff 			; <UNDEFINED> instruction: 0xffffffff
 80028bc:	ffffffff 			; <UNDEFINED> instruction: 0xffffffff
 80028c0:	ffffffff 			; <UNDEFINED> instruction: 0xffffffff
 80028c4:	ffffffff 			; <UNDEFINED> instruction: 0xffffffff
 80028c8:	ffffffff 			; <UNDEFINED> instruction: 0xffffffff
 80028cc:	ffffffff 			; <UNDEFINED> instruction: 0xffffffff
 80028d0:	ffffffff 			; <UNDEFINED> instruction: 0xffffffff
 80028d4:	ffffffff 			; <UNDEFINED> instruction: 0xffffffff
 80028d8:	ffffffff 			; <UNDEFINED> instruction: 0xffffffff
 80028dc:	ffffffff 			; <UNDEFINED> instruction: 0xffffffff
 80028e0:	ffffffff 			; <UNDEFINED> instruction: 0xffffffff
 80028e4:	ffffffff 			; <UNDEFINED> instruction: 0xffffffff
 80028e8:	ffffffff 			; <UNDEFINED> instruction: 0xffffffff
 80028ec:	ffffffff 			; <UNDEFINED> instruction: 0xffffffff
 80028f0:	ffffffff 			; <UNDEFINED> instruction: 0xffffffff
 80028f4:	ffffffff 			; <UNDEFINED> instruction: 0xffffffff
 80028f8:	ffffffff 			; <UNDEFINED> instruction: 0xffffffff
 80028fc:	ffffffff 			; <UNDEFINED> instruction: 0xffffffff
 8002900:	ffffffff 			; <UNDEFINED> instruction: 0xffffffff
 8002904:	ffffffff 			; <UNDEFINED> instruction: 0xffffffff
 8002908:	ffffffff 			; <UNDEFINED> instruction: 0xffffffff
 800290c:	ffffffff 			; <UNDEFINED> instruction: 0xffffffff
 8002910:	ffffffff 			; <UNDEFINED> instruction: 0xffffffff
 8002914:	ffffffff 			; <UNDEFINED> instruction: 0xffffffff
 8002918:	ffffffff 			; <UNDEFINED> instruction: 0xffffffff
 800291c:	ffffffff 			; <UNDEFINED> instruction: 0xffffffff
 8002920:	ffffffff 			; <UNDEFINED> instruction: 0xffffffff
 8002924:	ffffffff 			; <UNDEFINED> instruction: 0xffffffff
 8002928:	ffffffff 			; <UNDEFINED> instruction: 0xffffffff
 800292c:	ffffffff 			; <UNDEFINED> instruction: 0xffffffff
 8002930:	ffffffff 			; <UNDEFINED> instruction: 0xffffffff
 8002934:	ffffffff 			; <UNDEFINED> instruction: 0xffffffff
 8002938:	ffffffff 			; <UNDEFINED> instruction: 0xffffffff
 800293c:	ffffffff 			; <UNDEFINED> instruction: 0xffffffff
 8002940:	ffffffff 			; <UNDEFINED> instruction: 0xffffffff
 8002944:	ffffffff 			; <UNDEFINED> instruction: 0xffffffff
 8002948:	ffffffff 			; <UNDEFINED> instruction: 0xffffffff
 800294c:	ffffffff 			; <UNDEFINED> instruction: 0xffffffff
 8002950:	ffffffff 			; <UNDEFINED> instruction: 0xffffffff
 8002954:	ffffffff 			; <UNDEFINED> instruction: 0xffffffff
 8002958:	ffffffff 			; <UNDEFINED> instruction: 0xffffffff
 800295c:	ffffffff 			; <UNDEFINED> instruction: 0xffffffff
 8002960:	ffffffff 			; <UNDEFINED> instruction: 0xffffffff
 8002964:	ffffffff 			; <UNDEFINED> instruction: 0xffffffff
 8002968:	ffffffff 			; <UNDEFINED> instruction: 0xffffffff
 800296c:	ffffffff 			; <UNDEFINED> instruction: 0xffffffff
 8002970:	ffffffff 			; <UNDEFINED> instruction: 0xffffffff
 8002974:	ffffffff 			; <UNDEFINED> instruction: 0xffffffff
 8002978:	ffffffff 			; <UNDEFINED> instruction: 0xffffffff
 800297c:	ffffffff 			; <UNDEFINED> instruction: 0xffffffff
 8002980:	ffffffff 			; <UNDEFINED> instruction: 0xffffffff
 8002984:	ffffffff 			; <UNDEFINED> instruction: 0xffffffff
 8002988:	ffffffff 			; <UNDEFINED> instruction: 0xffffffff
 800298c:	ffffffff 			; <UNDEFINED> instruction: 0xffffffff
 8002990:	ffffffff 			; <UNDEFINED> instruction: 0xffffffff
 8002994:	ffffffff 			; <UNDEFINED> instruction: 0xffffffff
 8002998:	ffffffff 			; <UNDEFINED> instruction: 0xffffffff
 800299c:	ffffffff 			; <UNDEFINED> instruction: 0xffffffff
 80029a0:	ffffffff 			; <UNDEFINED> instruction: 0xffffffff
 80029a4:	ffffffff 			; <UNDEFINED> instruction: 0xffffffff
 80029a8:	ffffffff 			; <UNDEFINED> instruction: 0xffffffff
 80029ac:	ffffffff 			; <UNDEFINED> instruction: 0xffffffff
 80029b0:	ffffffff 			; <UNDEFINED> instruction: 0xffffffff
 80029b4:	ffffffff 			; <UNDEFINED> instruction: 0xffffffff
 80029b8:	ffffffff 			; <UNDEFINED> instruction: 0xffffffff
 80029bc:	ffffffff 			; <UNDEFINED> instruction: 0xffffffff
 80029c0:	ffffffff 			; <UNDEFINED> instruction: 0xffffffff
 80029c4:	ffffffff 			; <UNDEFINED> instruction: 0xffffffff
 80029c8:	ffffffff 			; <UNDEFINED> instruction: 0xffffffff
 80029cc:	ffffffff 			; <UNDEFINED> instruction: 0xffffffff
 80029d0:	ffffffff 			; <UNDEFINED> instruction: 0xffffffff
 80029d4:	ffffffff 			; <UNDEFINED> instruction: 0xffffffff
 80029d8:	ffffffff 			; <UNDEFINED> instruction: 0xffffffff
 80029dc:	ffffffff 			; <UNDEFINED> instruction: 0xffffffff
 80029e0:	ffffffff 			; <UNDEFINED> instruction: 0xffffffff
 80029e4:	ffffffff 			; <UNDEFINED> instruction: 0xffffffff
 80029e8:	ffffffff 			; <UNDEFINED> instruction: 0xffffffff
 80029ec:	ffffffff 			; <UNDEFINED> instruction: 0xffffffff
 80029f0:	ffffffff 			; <UNDEFINED> instruction: 0xffffffff
 80029f4:	ffffffff 			; <UNDEFINED> instruction: 0xffffffff
 80029f8:	ffffffff 			; <UNDEFINED> instruction: 0xffffffff
 80029fc:	ffffffff 			; <UNDEFINED> instruction: 0xffffffff
 8002a00:	ffffffff 			; <UNDEFINED> instruction: 0xffffffff
 8002a04:	ffffffff 			; <UNDEFINED> instruction: 0xffffffff
 8002a08:	ffffffff 			; <UNDEFINED> instruction: 0xffffffff
 8002a0c:	ffffffff 			; <UNDEFINED> instruction: 0xffffffff
 8002a10:	ffffffff 			; <UNDEFINED> instruction: 0xffffffff
 8002a14:	ffffffff 			; <UNDEFINED> instruction: 0xffffffff
 8002a18:	ffffffff 			; <UNDEFINED> instruction: 0xffffffff
 8002a1c:	ffffffff 			; <UNDEFINED> instruction: 0xffffffff
 8002a20:	ffffffff 			; <UNDEFINED> instruction: 0xffffffff
 8002a24:	ffffffff 			; <UNDEFINED> instruction: 0xffffffff
 8002a28:	ffffffff 			; <UNDEFINED> instruction: 0xffffffff
 8002a2c:	ffffffff 			; <UNDEFINED> instruction: 0xffffffff
 8002a30:	ffffffff 			; <UNDEFINED> instruction: 0xffffffff
 8002a34:	ffffffff 			; <UNDEFINED> instruction: 0xffffffff
 8002a38:	ffffffff 			; <UNDEFINED> instruction: 0xffffffff
 8002a3c:	ffffffff 			; <UNDEFINED> instruction: 0xffffffff
 8002a40:	ffffffff 			; <UNDEFINED> instruction: 0xffffffff
 8002a44:	ffffffff 			; <UNDEFINED> instruction: 0xffffffff
 8002a48:	ffffffff 			; <UNDEFINED> instruction: 0xffffffff
 8002a4c:	ffffffff 			; <UNDEFINED> instruction: 0xffffffff
 8002a50:	ffffffff 			; <UNDEFINED> instruction: 0xffffffff
 8002a54:	ffffffff 			; <UNDEFINED> instruction: 0xffffffff
 8002a58:	ffffffff 			; <UNDEFINED> instruction: 0xffffffff
 8002a5c:	ffffffff 			; <UNDEFINED> instruction: 0xffffffff
 8002a60:	ffffffff 			; <UNDEFINED> instruction: 0xffffffff
 8002a64:	ffffffff 			; <UNDEFINED> instruction: 0xffffffff
 8002a68:	ffffffff 			; <UNDEFINED> instruction: 0xffffffff
 8002a6c:	ffffffff 			; <UNDEFINED> instruction: 0xffffffff
 8002a70:	ffffffff 			; <UNDEFINED> instruction: 0xffffffff
 8002a74:	ffffffff 			; <UNDEFINED> instruction: 0xffffffff
 8002a78:	ffffffff 			; <UNDEFINED> instruction: 0xffffffff
 8002a7c:	ffffffff 			; <UNDEFINED> instruction: 0xffffffff
 8002a80:	ffffffff 			; <UNDEFINED> instruction: 0xffffffff
 8002a84:	ffffffff 			; <UNDEFINED> instruction: 0xffffffff
 8002a88:	ffffffff 			; <UNDEFINED> instruction: 0xffffffff
 8002a8c:	ffffffff 			; <UNDEFINED> instruction: 0xffffffff
 8002a90:	ffffffff 			; <UNDEFINED> instruction: 0xffffffff
 8002a94:	ffffffff 			; <UNDEFINED> instruction: 0xffffffff
 8002a98:	ffffffff 			; <UNDEFINED> instruction: 0xffffffff
 8002a9c:	ffffffff 			; <UNDEFINED> instruction: 0xffffffff
 8002aa0:	ffffffff 			; <UNDEFINED> instruction: 0xffffffff
 8002aa4:	ffffffff 			; <UNDEFINED> instruction: 0xffffffff
 8002aa8:	ffffffff 			; <UNDEFINED> instruction: 0xffffffff
 8002aac:	ffffffff 			; <UNDEFINED> instruction: 0xffffffff
 8002ab0:	ffffffff 			; <UNDEFINED> instruction: 0xffffffff
 8002ab4:	ffffffff 			; <UNDEFINED> instruction: 0xffffffff
 8002ab8:	ffffffff 			; <UNDEFINED> instruction: 0xffffffff
 8002abc:	ffffffff 			; <UNDEFINED> instruction: 0xffffffff
 8002ac0:	ffffffff 			; <UNDEFINED> instruction: 0xffffffff
 8002ac4:	ffffffff 			; <UNDEFINED> instruction: 0xffffffff
 8002ac8:	ffffffff 			; <UNDEFINED> instruction: 0xffffffff
 8002acc:	ffffffff 			; <UNDEFINED> instruction: 0xffffffff
 8002ad0:	ffffffff 			; <UNDEFINED> instruction: 0xffffffff
 8002ad4:	ffffffff 			; <UNDEFINED> instruction: 0xffffffff
 8002ad8:	ffffffff 			; <UNDEFINED> instruction: 0xffffffff
 8002adc:	ffffffff 			; <UNDEFINED> instruction: 0xffffffff
 8002ae0:	ffffffff 			; <UNDEFINED> instruction: 0xffffffff
 8002ae4:	ffffffff 			; <UNDEFINED> instruction: 0xffffffff
 8002ae8:	ffffffff 			; <UNDEFINED> instruction: 0xffffffff
 8002aec:	ffffffff 			; <UNDEFINED> instruction: 0xffffffff
 8002af0:	ffffffff 			; <UNDEFINED> instruction: 0xffffffff
 8002af4:	ffffffff 			; <UNDEFINED> instruction: 0xffffffff
 8002af8:	ffffffff 			; <UNDEFINED> instruction: 0xffffffff
 8002afc:	ffffffff 			; <UNDEFINED> instruction: 0xffffffff
 8002b00:	ffffffff 			; <UNDEFINED> instruction: 0xffffffff
 8002b04:	ffffffff 			; <UNDEFINED> instruction: 0xffffffff
 8002b08:	ffffffff 			; <UNDEFINED> instruction: 0xffffffff
 8002b0c:	ffffffff 			; <UNDEFINED> instruction: 0xffffffff
 8002b10:	ffffffff 			; <UNDEFINED> instruction: 0xffffffff
 8002b14:	ffffffff 			; <UNDEFINED> instruction: 0xffffffff
 8002b18:	ffffffff 			; <UNDEFINED> instruction: 0xffffffff
 8002b1c:	ffffffff 			; <UNDEFINED> instruction: 0xffffffff
 8002b20:	ffffffff 			; <UNDEFINED> instruction: 0xffffffff
 8002b24:	ffffffff 			; <UNDEFINED> instruction: 0xffffffff
 8002b28:	ffffffff 			; <UNDEFINED> instruction: 0xffffffff
 8002b2c:	ffffffff 			; <UNDEFINED> instruction: 0xffffffff
 8002b30:	ffffffff 			; <UNDEFINED> instruction: 0xffffffff
 8002b34:	ffffffff 			; <UNDEFINED> instruction: 0xffffffff
 8002b38:	ffffffff 			; <UNDEFINED> instruction: 0xffffffff
 8002b3c:	ffffffff 			; <UNDEFINED> instruction: 0xffffffff
 8002b40:	ffffffff 			; <UNDEFINED> instruction: 0xffffffff
 8002b44:	ffffffff 			; <UNDEFINED> instruction: 0xffffffff
 8002b48:	ffffffff 			; <UNDEFINED> instruction: 0xffffffff
 8002b4c:	ffffffff 			; <UNDEFINED> instruction: 0xffffffff
 8002b50:	ffffffff 			; <UNDEFINED> instruction: 0xffffffff
 8002b54:	ffffffff 			; <UNDEFINED> instruction: 0xffffffff
 8002b58:	ffffffff 			; <UNDEFINED> instruction: 0xffffffff
 8002b5c:	ffffffff 			; <UNDEFINED> instruction: 0xffffffff
 8002b60:	ffffffff 			; <UNDEFINED> instruction: 0xffffffff
 8002b64:	ffffffff 			; <UNDEFINED> instruction: 0xffffffff
 8002b68:	ffffffff 			; <UNDEFINED> instruction: 0xffffffff
 8002b6c:	ffffffff 			; <UNDEFINED> instruction: 0xffffffff
 8002b70:	ffffffff 			; <UNDEFINED> instruction: 0xffffffff
 8002b74:	ffffffff 			; <UNDEFINED> instruction: 0xffffffff
 8002b78:	ffffffff 			; <UNDEFINED> instruction: 0xffffffff
 8002b7c:	ffffffff 			; <UNDEFINED> instruction: 0xffffffff
 8002b80:	ffffffff 			; <UNDEFINED> instruction: 0xffffffff
 8002b84:	ffffffff 			; <UNDEFINED> instruction: 0xffffffff
 8002b88:	ffffffff 			; <UNDEFINED> instruction: 0xffffffff
 8002b8c:	ffffffff 			; <UNDEFINED> instruction: 0xffffffff
 8002b90:	ffffffff 			; <UNDEFINED> instruction: 0xffffffff
 8002b94:	ffffffff 			; <UNDEFINED> instruction: 0xffffffff
 8002b98:	ffffffff 			; <UNDEFINED> instruction: 0xffffffff
 8002b9c:	ffffffff 			; <UNDEFINED> instruction: 0xffffffff
 8002ba0:	ffffffff 			; <UNDEFINED> instruction: 0xffffffff
 8002ba4:	ffffffff 			; <UNDEFINED> instruction: 0xffffffff
 8002ba8:	ffffffff 			; <UNDEFINED> instruction: 0xffffffff
 8002bac:	ffffffff 			; <UNDEFINED> instruction: 0xffffffff
 8002bb0:	ffffffff 			; <UNDEFINED> instruction: 0xffffffff
 8002bb4:	ffffffff 			; <UNDEFINED> instruction: 0xffffffff
 8002bb8:	ffffffff 			; <UNDEFINED> instruction: 0xffffffff
 8002bbc:	ffffffff 			; <UNDEFINED> instruction: 0xffffffff
 8002bc0:	ffffffff 			; <UNDEFINED> instruction: 0xffffffff
 8002bc4:	ffffffff 			; <UNDEFINED> instruction: 0xffffffff
 8002bc8:	ffffffff 			; <UNDEFINED> instruction: 0xffffffff
 8002bcc:	ffffffff 			; <UNDEFINED> instruction: 0xffffffff
 8002bd0:	ffffffff 			; <UNDEFINED> instruction: 0xffffffff
 8002bd4:	ffffffff 			; <UNDEFINED> instruction: 0xffffffff
 8002bd8:	ffffffff 			; <UNDEFINED> instruction: 0xffffffff
 8002bdc:	ffffffff 			; <UNDEFINED> instruction: 0xffffffff
 8002be0:	ffffffff 			; <UNDEFINED> instruction: 0xffffffff
 8002be4:	ffffffff 			; <UNDEFINED> instruction: 0xffffffff
 8002be8:	ffffffff 			; <UNDEFINED> instruction: 0xffffffff
 8002bec:	ffffffff 			; <UNDEFINED> instruction: 0xffffffff
 8002bf0:	ffffffff 			; <UNDEFINED> instruction: 0xffffffff
 8002bf4:	ffffffff 			; <UNDEFINED> instruction: 0xffffffff
 8002bf8:	ffffffff 			; <UNDEFINED> instruction: 0xffffffff
 8002bfc:	ffffffff 			; <UNDEFINED> instruction: 0xffffffff
 8002c00:	ffffffff 			; <UNDEFINED> instruction: 0xffffffff
 8002c04:	ffffffff 			; <UNDEFINED> instruction: 0xffffffff
 8002c08:	ffffffff 			; <UNDEFINED> instruction: 0xffffffff
 8002c0c:	ffffffff 			; <UNDEFINED> instruction: 0xffffffff
 8002c10:	ffffffff 			; <UNDEFINED> instruction: 0xffffffff
 8002c14:	ffffffff 			; <UNDEFINED> instruction: 0xffffffff
 8002c18:	ffffffff 			; <UNDEFINED> instruction: 0xffffffff
 8002c1c:	ffffffff 			; <UNDEFINED> instruction: 0xffffffff
 8002c20:	ffffffff 			; <UNDEFINED> instruction: 0xffffffff
 8002c24:	ffffffff 			; <UNDEFINED> instruction: 0xffffffff
 8002c28:	ffffffff 			; <UNDEFINED> instruction: 0xffffffff
 8002c2c:	ffffffff 			; <UNDEFINED> instruction: 0xffffffff
 8002c30:	ffffffff 			; <UNDEFINED> instruction: 0xffffffff
 8002c34:	ffffffff 			; <UNDEFINED> instruction: 0xffffffff
 8002c38:	ffffffff 			; <UNDEFINED> instruction: 0xffffffff
 8002c3c:	ffffffff 			; <UNDEFINED> instruction: 0xffffffff
 8002c40:	ffffffff 			; <UNDEFINED> instruction: 0xffffffff
 8002c44:	ffffffff 			; <UNDEFINED> instruction: 0xffffffff
 8002c48:	ffffffff 			; <UNDEFINED> instruction: 0xffffffff
 8002c4c:	ffffffff 			; <UNDEFINED> instruction: 0xffffffff
 8002c50:	ffffffff 			; <UNDEFINED> instruction: 0xffffffff
 8002c54:	ffffffff 			; <UNDEFINED> instruction: 0xffffffff
 8002c58:	ffffffff 			; <UNDEFINED> instruction: 0xffffffff
 8002c5c:	ffffffff 			; <UNDEFINED> instruction: 0xffffffff
 8002c60:	ffffffff 			; <UNDEFINED> instruction: 0xffffffff
 8002c64:	ffffffff 			; <UNDEFINED> instruction: 0xffffffff
 8002c68:	ffffffff 			; <UNDEFINED> instruction: 0xffffffff
 8002c6c:	ffffffff 			; <UNDEFINED> instruction: 0xffffffff
 8002c70:	ffffffff 			; <UNDEFINED> instruction: 0xffffffff
 8002c74:	ffffffff 			; <UNDEFINED> instruction: 0xffffffff
 8002c78:	ffffffff 			; <UNDEFINED> instruction: 0xffffffff
 8002c7c:	ffffffff 			; <UNDEFINED> instruction: 0xffffffff
 8002c80:	ffffffff 			; <UNDEFINED> instruction: 0xffffffff
 8002c84:	ffffffff 			; <UNDEFINED> instruction: 0xffffffff
 8002c88:	ffffffff 			; <UNDEFINED> instruction: 0xffffffff
 8002c8c:	ffffffff 			; <UNDEFINED> instruction: 0xffffffff
 8002c90:	ffffffff 			; <UNDEFINED> instruction: 0xffffffff
 8002c94:	ffffffff 			; <UNDEFINED> instruction: 0xffffffff
 8002c98:	ffffffff 			; <UNDEFINED> instruction: 0xffffffff
 8002c9c:	ffffffff 			; <UNDEFINED> instruction: 0xffffffff
 8002ca0:	ffffffff 			; <UNDEFINED> instruction: 0xffffffff
 8002ca4:	ffffffff 			; <UNDEFINED> instruction: 0xffffffff
 8002ca8:	ffffffff 			; <UNDEFINED> instruction: 0xffffffff
 8002cac:	ffffffff 			; <UNDEFINED> instruction: 0xffffffff
 8002cb0:	ffffffff 			; <UNDEFINED> instruction: 0xffffffff
 8002cb4:	ffffffff 			; <UNDEFINED> instruction: 0xffffffff
 8002cb8:	ffffffff 			; <UNDEFINED> instruction: 0xffffffff
 8002cbc:	ffffffff 			; <UNDEFINED> instruction: 0xffffffff
 8002cc0:	ffffffff 			; <UNDEFINED> instruction: 0xffffffff
 8002cc4:	ffffffff 			; <UNDEFINED> instruction: 0xffffffff
 8002cc8:	ffffffff 			; <UNDEFINED> instruction: 0xffffffff
 8002ccc:	ffffffff 			; <UNDEFINED> instruction: 0xffffffff
 8002cd0:	ffffffff 			; <UNDEFINED> instruction: 0xffffffff
 8002cd4:	ffffffff 			; <UNDEFINED> instruction: 0xffffffff
 8002cd8:	ffffffff 			; <UNDEFINED> instruction: 0xffffffff
 8002cdc:	ffffffff 			; <UNDEFINED> instruction: 0xffffffff
 8002ce0:	ffffffff 			; <UNDEFINED> instruction: 0xffffffff
 8002ce4:	ffffffff 			; <UNDEFINED> instruction: 0xffffffff
 8002ce8:	ffffffff 			; <UNDEFINED> instruction: 0xffffffff
 8002cec:	ffffffff 			; <UNDEFINED> instruction: 0xffffffff
 8002cf0:	ffffffff 			; <UNDEFINED> instruction: 0xffffffff
 8002cf4:	ffffffff 			; <UNDEFINED> instruction: 0xffffffff
 8002cf8:	ffffffff 			; <UNDEFINED> instruction: 0xffffffff
 8002cfc:	ffffffff 			; <UNDEFINED> instruction: 0xffffffff
 8002d00:	ffffffff 			; <UNDEFINED> instruction: 0xffffffff
 8002d04:	ffffffff 			; <UNDEFINED> instruction: 0xffffffff
 8002d08:	ffffffff 			; <UNDEFINED> instruction: 0xffffffff
 8002d0c:	ffffffff 			; <UNDEFINED> instruction: 0xffffffff
 8002d10:	ffffffff 			; <UNDEFINED> instruction: 0xffffffff
 8002d14:	ffffffff 			; <UNDEFINED> instruction: 0xffffffff
 8002d18:	ffffffff 			; <UNDEFINED> instruction: 0xffffffff
 8002d1c:	ffffffff 			; <UNDEFINED> instruction: 0xffffffff
 8002d20:	ffffffff 			; <UNDEFINED> instruction: 0xffffffff
 8002d24:	ffffffff 			; <UNDEFINED> instruction: 0xffffffff
 8002d28:	ffffffff 			; <UNDEFINED> instruction: 0xffffffff
 8002d2c:	ffffffff 			; <UNDEFINED> instruction: 0xffffffff
 8002d30:	ffffffff 			; <UNDEFINED> instruction: 0xffffffff
 8002d34:	ffffffff 			; <UNDEFINED> instruction: 0xffffffff
 8002d38:	ffffffff 			; <UNDEFINED> instruction: 0xffffffff
 8002d3c:	ffffffff 			; <UNDEFINED> instruction: 0xffffffff
 8002d40:	ffffffff 			; <UNDEFINED> instruction: 0xffffffff
 8002d44:	ffffffff 			; <UNDEFINED> instruction: 0xffffffff
 8002d48:	ffffffff 			; <UNDEFINED> instruction: 0xffffffff
 8002d4c:	ffffffff 			; <UNDEFINED> instruction: 0xffffffff
 8002d50:	ffffffff 			; <UNDEFINED> instruction: 0xffffffff
 8002d54:	ffffffff 			; <UNDEFINED> instruction: 0xffffffff
 8002d58:	ffffffff 			; <UNDEFINED> instruction: 0xffffffff
 8002d5c:	ffffffff 			; <UNDEFINED> instruction: 0xffffffff
 8002d60:	ffffffff 			; <UNDEFINED> instruction: 0xffffffff
 8002d64:	ffffffff 			; <UNDEFINED> instruction: 0xffffffff
 8002d68:	ffffffff 			; <UNDEFINED> instruction: 0xffffffff
 8002d6c:	ffffffff 			; <UNDEFINED> instruction: 0xffffffff
 8002d70:	ffffffff 			; <UNDEFINED> instruction: 0xffffffff
 8002d74:	ffffffff 			; <UNDEFINED> instruction: 0xffffffff
 8002d78:	ffffffff 			; <UNDEFINED> instruction: 0xffffffff
 8002d7c:	ffffffff 			; <UNDEFINED> instruction: 0xffffffff
 8002d80:	ffffffff 			; <UNDEFINED> instruction: 0xffffffff
 8002d84:	ffffffff 			; <UNDEFINED> instruction: 0xffffffff
 8002d88:	ffffffff 			; <UNDEFINED> instruction: 0xffffffff
 8002d8c:	ffffffff 			; <UNDEFINED> instruction: 0xffffffff
 8002d90:	ffffffff 			; <UNDEFINED> instruction: 0xffffffff
 8002d94:	ffffffff 			; <UNDEFINED> instruction: 0xffffffff
 8002d98:	ffffffff 			; <UNDEFINED> instruction: 0xffffffff
 8002d9c:	ffffffff 			; <UNDEFINED> instruction: 0xffffffff
 8002da0:	ffffffff 			; <UNDEFINED> instruction: 0xffffffff
 8002da4:	ffffffff 			; <UNDEFINED> instruction: 0xffffffff
 8002da8:	ffffffff 			; <UNDEFINED> instruction: 0xffffffff
 8002dac:	ffffffff 			; <UNDEFINED> instruction: 0xffffffff
 8002db0:	ffffffff 			; <UNDEFINED> instruction: 0xffffffff
 8002db4:	ffffffff 			; <UNDEFINED> instruction: 0xffffffff
 8002db8:	ffffffff 			; <UNDEFINED> instruction: 0xffffffff
 8002dbc:	ffffffff 			; <UNDEFINED> instruction: 0xffffffff
 8002dc0:	ffffffff 			; <UNDEFINED> instruction: 0xffffffff
 8002dc4:	ffffffff 			; <UNDEFINED> instruction: 0xffffffff
 8002dc8:	ffffffff 			; <UNDEFINED> instruction: 0xffffffff
 8002dcc:	ffffffff 			; <UNDEFINED> instruction: 0xffffffff
 8002dd0:	ffffffff 			; <UNDEFINED> instruction: 0xffffffff
 8002dd4:	ffffffff 			; <UNDEFINED> instruction: 0xffffffff
 8002dd8:	ffffffff 			; <UNDEFINED> instruction: 0xffffffff
 8002ddc:	ffffffff 			; <UNDEFINED> instruction: 0xffffffff
 8002de0:	ffffffff 			; <UNDEFINED> instruction: 0xffffffff
 8002de4:	ffffffff 			; <UNDEFINED> instruction: 0xffffffff
 8002de8:	ffffffff 			; <UNDEFINED> instruction: 0xffffffff
 8002dec:	ffffffff 			; <UNDEFINED> instruction: 0xffffffff
 8002df0:	ffffffff 			; <UNDEFINED> instruction: 0xffffffff
 8002df4:	ffffffff 			; <UNDEFINED> instruction: 0xffffffff
 8002df8:	ffffffff 			; <UNDEFINED> instruction: 0xffffffff
 8002dfc:	ffffffff 			; <UNDEFINED> instruction: 0xffffffff
 8002e00:	ffffffff 			; <UNDEFINED> instruction: 0xffffffff
 8002e04:	ffffffff 			; <UNDEFINED> instruction: 0xffffffff
 8002e08:	ffffffff 			; <UNDEFINED> instruction: 0xffffffff
 8002e0c:	ffffffff 			; <UNDEFINED> instruction: 0xffffffff
 8002e10:	ffffffff 			; <UNDEFINED> instruction: 0xffffffff
 8002e14:	ffffffff 			; <UNDEFINED> instruction: 0xffffffff
 8002e18:	ffffffff 			; <UNDEFINED> instruction: 0xffffffff
 8002e1c:	ffffffff 			; <UNDEFINED> instruction: 0xffffffff
 8002e20:	ffffffff 			; <UNDEFINED> instruction: 0xffffffff
 8002e24:	ffffffff 			; <UNDEFINED> instruction: 0xffffffff
 8002e28:	ffffffff 			; <UNDEFINED> instruction: 0xffffffff
 8002e2c:	ffffffff 			; <UNDEFINED> instruction: 0xffffffff
 8002e30:	ffffffff 			; <UNDEFINED> instruction: 0xffffffff
 8002e34:	ffffffff 			; <UNDEFINED> instruction: 0xffffffff
 8002e38:	ffffffff 			; <UNDEFINED> instruction: 0xffffffff
 8002e3c:	ffffffff 			; <UNDEFINED> instruction: 0xffffffff
 8002e40:	ffffffff 			; <UNDEFINED> instruction: 0xffffffff
 8002e44:	ffffffff 			; <UNDEFINED> instruction: 0xffffffff
 8002e48:	ffffffff 			; <UNDEFINED> instruction: 0xffffffff
 8002e4c:	ffffffff 			; <UNDEFINED> instruction: 0xffffffff
 8002e50:	ffffffff 			; <UNDEFINED> instruction: 0xffffffff
 8002e54:	ffffffff 			; <UNDEFINED> instruction: 0xffffffff
 8002e58:	ffffffff 			; <UNDEFINED> instruction: 0xffffffff
 8002e5c:	ffffffff 			; <UNDEFINED> instruction: 0xffffffff
 8002e60:	ffffffff 			; <UNDEFINED> instruction: 0xffffffff
 8002e64:	ffffffff 			; <UNDEFINED> instruction: 0xffffffff
 8002e68:	ffffffff 			; <UNDEFINED> instruction: 0xffffffff
 8002e6c:	ffffffff 			; <UNDEFINED> instruction: 0xffffffff
 8002e70:	ffffffff 			; <UNDEFINED> instruction: 0xffffffff
 8002e74:	ffffffff 			; <UNDEFINED> instruction: 0xffffffff
 8002e78:	ffffffff 			; <UNDEFINED> instruction: 0xffffffff
 8002e7c:	ffffffff 			; <UNDEFINED> instruction: 0xffffffff
 8002e80:	ffffffff 			; <UNDEFINED> instruction: 0xffffffff
 8002e84:	ffffffff 			; <UNDEFINED> instruction: 0xffffffff
 8002e88:	ffffffff 			; <UNDEFINED> instruction: 0xffffffff
 8002e8c:	ffffffff 			; <UNDEFINED> instruction: 0xffffffff
 8002e90:	ffffffff 			; <UNDEFINED> instruction: 0xffffffff
 8002e94:	ffffffff 			; <UNDEFINED> instruction: 0xffffffff
 8002e98:	ffffffff 			; <UNDEFINED> instruction: 0xffffffff
 8002e9c:	ffffffff 			; <UNDEFINED> instruction: 0xffffffff
 8002ea0:	ffffffff 			; <UNDEFINED> instruction: 0xffffffff
 8002ea4:	ffffffff 			; <UNDEFINED> instruction: 0xffffffff
 8002ea8:	ffffffff 			; <UNDEFINED> instruction: 0xffffffff
 8002eac:	ffffffff 			; <UNDEFINED> instruction: 0xffffffff
 8002eb0:	ffffffff 			; <UNDEFINED> instruction: 0xffffffff
 8002eb4:	ffffffff 			; <UNDEFINED> instruction: 0xffffffff
 8002eb8:	ffffffff 			; <UNDEFINED> instruction: 0xffffffff
 8002ebc:	ffffffff 			; <UNDEFINED> instruction: 0xffffffff
 8002ec0:	ffffffff 			; <UNDEFINED> instruction: 0xffffffff
 8002ec4:	ffffffff 			; <UNDEFINED> instruction: 0xffffffff
 8002ec8:	ffffffff 			; <UNDEFINED> instruction: 0xffffffff
 8002ecc:	ffffffff 			; <UNDEFINED> instruction: 0xffffffff
 8002ed0:	ffffffff 			; <UNDEFINED> instruction: 0xffffffff
 8002ed4:	ffffffff 			; <UNDEFINED> instruction: 0xffffffff
 8002ed8:	ffffffff 			; <UNDEFINED> instruction: 0xffffffff
 8002edc:	ffffffff 			; <UNDEFINED> instruction: 0xffffffff
 8002ee0:	ffffffff 			; <UNDEFINED> instruction: 0xffffffff
 8002ee4:	ffffffff 			; <UNDEFINED> instruction: 0xffffffff
 8002ee8:	ffffffff 			; <UNDEFINED> instruction: 0xffffffff
 8002eec:	ffffffff 			; <UNDEFINED> instruction: 0xffffffff
 8002ef0:	ffffffff 			; <UNDEFINED> instruction: 0xffffffff
 8002ef4:	ffffffff 			; <UNDEFINED> instruction: 0xffffffff
 8002ef8:	ffffffff 			; <UNDEFINED> instruction: 0xffffffff
 8002efc:	ffffffff 			; <UNDEFINED> instruction: 0xffffffff
 8002f00:	ffffffff 			; <UNDEFINED> instruction: 0xffffffff
 8002f04:	ffffffff 			; <UNDEFINED> instruction: 0xffffffff
 8002f08:	ffffffff 			; <UNDEFINED> instruction: 0xffffffff
 8002f0c:	ffffffff 			; <UNDEFINED> instruction: 0xffffffff
 8002f10:	ffffffff 			; <UNDEFINED> instruction: 0xffffffff
 8002f14:	ffffffff 			; <UNDEFINED> instruction: 0xffffffff
 8002f18:	ffffffff 			; <UNDEFINED> instruction: 0xffffffff
 8002f1c:	ffffffff 			; <UNDEFINED> instruction: 0xffffffff
 8002f20:	ffffffff 			; <UNDEFINED> instruction: 0xffffffff
 8002f24:	ffffffff 			; <UNDEFINED> instruction: 0xffffffff
 8002f28:	ffffffff 			; <UNDEFINED> instruction: 0xffffffff
 8002f2c:	ffffffff 			; <UNDEFINED> instruction: 0xffffffff
 8002f30:	ffffffff 			; <UNDEFINED> instruction: 0xffffffff
 8002f34:	ffffffff 			; <UNDEFINED> instruction: 0xffffffff
 8002f38:	ffffffff 			; <UNDEFINED> instruction: 0xffffffff
 8002f3c:	ffffffff 			; <UNDEFINED> instruction: 0xffffffff
 8002f40:	ffffffff 			; <UNDEFINED> instruction: 0xffffffff
 8002f44:	ffffffff 			; <UNDEFINED> instruction: 0xffffffff
 8002f48:	ffffffff 			; <UNDEFINED> instruction: 0xffffffff
 8002f4c:	ffffffff 			; <UNDEFINED> instruction: 0xffffffff
 8002f50:	ffffffff 			; <UNDEFINED> instruction: 0xffffffff
 8002f54:	ffffffff 			; <UNDEFINED> instruction: 0xffffffff
 8002f58:	ffffffff 			; <UNDEFINED> instruction: 0xffffffff
 8002f5c:	ffffffff 			; <UNDEFINED> instruction: 0xffffffff
 8002f60:	ffffffff 			; <UNDEFINED> instruction: 0xffffffff
 8002f64:	ffffffff 			; <UNDEFINED> instruction: 0xffffffff
 8002f68:	ffffffff 			; <UNDEFINED> instruction: 0xffffffff
 8002f6c:	ffffffff 			; <UNDEFINED> instruction: 0xffffffff
 8002f70:	ffffffff 			; <UNDEFINED> instruction: 0xffffffff
 8002f74:	ffffffff 			; <UNDEFINED> instruction: 0xffffffff
 8002f78:	ffffffff 			; <UNDEFINED> instruction: 0xffffffff
 8002f7c:	ffffffff 			; <UNDEFINED> instruction: 0xffffffff
 8002f80:	ffffffff 			; <UNDEFINED> instruction: 0xffffffff
 8002f84:	ffffffff 			; <UNDEFINED> instruction: 0xffffffff
 8002f88:	ffffffff 			; <UNDEFINED> instruction: 0xffffffff
 8002f8c:	ffffffff 			; <UNDEFINED> instruction: 0xffffffff
 8002f90:	ffffffff 			; <UNDEFINED> instruction: 0xffffffff
 8002f94:	ffffffff 			; <UNDEFINED> instruction: 0xffffffff
 8002f98:	ffffffff 			; <UNDEFINED> instruction: 0xffffffff
 8002f9c:	ffffffff 			; <UNDEFINED> instruction: 0xffffffff
 8002fa0:	ffffffff 			; <UNDEFINED> instruction: 0xffffffff
 8002fa4:	ffffffff 			; <UNDEFINED> instruction: 0xffffffff
 8002fa8:	ffffffff 			; <UNDEFINED> instruction: 0xffffffff
 8002fac:	ffffffff 			; <UNDEFINED> instruction: 0xffffffff
 8002fb0:	ffffffff 			; <UNDEFINED> instruction: 0xffffffff
 8002fb4:	ffffffff 			; <UNDEFINED> instruction: 0xffffffff
 8002fb8:	ffffffff 			; <UNDEFINED> instruction: 0xffffffff
 8002fbc:	ffffffff 			; <UNDEFINED> instruction: 0xffffffff
 8002fc0:	ffffffff 			; <UNDEFINED> instruction: 0xffffffff
 8002fc4:	ffffffff 			; <UNDEFINED> instruction: 0xffffffff
 8002fc8:	ffffffff 			; <UNDEFINED> instruction: 0xffffffff
 8002fcc:	ffffffff 			; <UNDEFINED> instruction: 0xffffffff
 8002fd0:	ffffffff 			; <UNDEFINED> instruction: 0xffffffff
 8002fd4:	ffffffff 			; <UNDEFINED> instruction: 0xffffffff
 8002fd8:	ffffffff 			; <UNDEFINED> instruction: 0xffffffff
 8002fdc:	ffffffff 			; <UNDEFINED> instruction: 0xffffffff
 8002fe0:	ffffffff 			; <UNDEFINED> instruction: 0xffffffff
 8002fe4:	ffffffff 			; <UNDEFINED> instruction: 0xffffffff
 8002fe8:	ffffffff 			; <UNDEFINED> instruction: 0xffffffff
 8002fec:	ffffffff 			; <UNDEFINED> instruction: 0xffffffff
 8002ff0:	ffffffff 			; <UNDEFINED> instruction: 0xffffffff
 8002ff4:	ffffffff 			; <UNDEFINED> instruction: 0xffffffff
 8002ff8:	ffffffff 			; <UNDEFINED> instruction: 0xffffffff
 8002ffc:	ffffffff 			; <UNDEFINED> instruction: 0xffffffff
 8003000:	ffffffff 			; <UNDEFINED> instruction: 0xffffffff
 8003004:	ffffffff 			; <UNDEFINED> instruction: 0xffffffff
 8003008:	ffffffff 			; <UNDEFINED> instruction: 0xffffffff
 800300c:	ffffffff 			; <UNDEFINED> instruction: 0xffffffff
 8003010:	ffffffff 			; <UNDEFINED> instruction: 0xffffffff
 8003014:	ffffffff 			; <UNDEFINED> instruction: 0xffffffff
 8003018:	ffffffff 			; <UNDEFINED> instruction: 0xffffffff
 800301c:	ffffffff 			; <UNDEFINED> instruction: 0xffffffff
 8003020:	ffffffff 			; <UNDEFINED> instruction: 0xffffffff
 8003024:	ffffffff 			; <UNDEFINED> instruction: 0xffffffff
 8003028:	ffffffff 			; <UNDEFINED> instruction: 0xffffffff
 800302c:	ffffffff 			; <UNDEFINED> instruction: 0xffffffff
 8003030:	ffffffff 			; <UNDEFINED> instruction: 0xffffffff
 8003034:	ffffffff 			; <UNDEFINED> instruction: 0xffffffff
 8003038:	ffffffff 			; <UNDEFINED> instruction: 0xffffffff
 800303c:	ffffffff 			; <UNDEFINED> instruction: 0xffffffff
 8003040:	ffffffff 			; <UNDEFINED> instruction: 0xffffffff
 8003044:	ffffffff 			; <UNDEFINED> instruction: 0xffffffff
 8003048:	ffffffff 			; <UNDEFINED> instruction: 0xffffffff
 800304c:	ffffffff 			; <UNDEFINED> instruction: 0xffffffff
 8003050:	ffffffff 			; <UNDEFINED> instruction: 0xffffffff
 8003054:	ffffffff 			; <UNDEFINED> instruction: 0xffffffff
 8003058:	ffffffff 			; <UNDEFINED> instruction: 0xffffffff
 800305c:	ffffffff 			; <UNDEFINED> instruction: 0xffffffff
 8003060:	ffffffff 			; <UNDEFINED> instruction: 0xffffffff
 8003064:	ffffffff 			; <UNDEFINED> instruction: 0xffffffff
 8003068:	ffffffff 			; <UNDEFINED> instruction: 0xffffffff
 800306c:	ffffffff 			; <UNDEFINED> instruction: 0xffffffff
 8003070:	ffffffff 			; <UNDEFINED> instruction: 0xffffffff
 8003074:	ffffffff 			; <UNDEFINED> instruction: 0xffffffff
 8003078:	ffffffff 			; <UNDEFINED> instruction: 0xffffffff
 800307c:	ffffffff 			; <UNDEFINED> instruction: 0xffffffff
 8003080:	ffffffff 			; <UNDEFINED> instruction: 0xffffffff
 8003084:	ffffffff 			; <UNDEFINED> instruction: 0xffffffff
 8003088:	ffffffff 			; <UNDEFINED> instruction: 0xffffffff
 800308c:	ffffffff 			; <UNDEFINED> instruction: 0xffffffff
 8003090:	ffffffff 			; <UNDEFINED> instruction: 0xffffffff
 8003094:	ffffffff 			; <UNDEFINED> instruction: 0xffffffff
 8003098:	ffffffff 			; <UNDEFINED> instruction: 0xffffffff
 800309c:	ffffffff 			; <UNDEFINED> instruction: 0xffffffff
 80030a0:	ffffffff 			; <UNDEFINED> instruction: 0xffffffff
 80030a4:	ffffffff 			; <UNDEFINED> instruction: 0xffffffff
 80030a8:	ffffffff 			; <UNDEFINED> instruction: 0xffffffff
 80030ac:	ffffffff 			; <UNDEFINED> instruction: 0xffffffff
 80030b0:	ffffffff 			; <UNDEFINED> instruction: 0xffffffff
 80030b4:	ffffffff 			; <UNDEFINED> instruction: 0xffffffff
 80030b8:	ffffffff 			; <UNDEFINED> instruction: 0xffffffff
 80030bc:	ffffffff 			; <UNDEFINED> instruction: 0xffffffff
 80030c0:	ffffffff 			; <UNDEFINED> instruction: 0xffffffff
 80030c4:	ffffffff 			; <UNDEFINED> instruction: 0xffffffff
 80030c8:	ffffffff 			; <UNDEFINED> instruction: 0xffffffff
 80030cc:	ffffffff 			; <UNDEFINED> instruction: 0xffffffff
 80030d0:	ffffffff 			; <UNDEFINED> instruction: 0xffffffff
 80030d4:	ffffffff 			; <UNDEFINED> instruction: 0xffffffff
 80030d8:	ffffffff 			; <UNDEFINED> instruction: 0xffffffff
 80030dc:	ffffffff 			; <UNDEFINED> instruction: 0xffffffff
 80030e0:	ffffffff 			; <UNDEFINED> instruction: 0xffffffff
 80030e4:	ffffffff 			; <UNDEFINED> instruction: 0xffffffff
 80030e8:	ffffffff 			; <UNDEFINED> instruction: 0xffffffff
 80030ec:	ffffffff 			; <UNDEFINED> instruction: 0xffffffff
 80030f0:	ffffffff 			; <UNDEFINED> instruction: 0xffffffff
 80030f4:	ffffffff 			; <UNDEFINED> instruction: 0xffffffff
 80030f8:	ffffffff 			; <UNDEFINED> instruction: 0xffffffff
 80030fc:	ffffffff 			; <UNDEFINED> instruction: 0xffffffff
 8003100:	ffffffff 			; <UNDEFINED> instruction: 0xffffffff
 8003104:	ffffffff 			; <UNDEFINED> instruction: 0xffffffff
 8003108:	ffffffff 			; <UNDEFINED> instruction: 0xffffffff
 800310c:	ffffffff 			; <UNDEFINED> instruction: 0xffffffff
 8003110:	ffffffff 			; <UNDEFINED> instruction: 0xffffffff
 8003114:	ffffffff 			; <UNDEFINED> instruction: 0xffffffff
 8003118:	ffffffff 			; <UNDEFINED> instruction: 0xffffffff
 800311c:	ffffffff 			; <UNDEFINED> instruction: 0xffffffff
 8003120:	ffffffff 			; <UNDEFINED> instruction: 0xffffffff
 8003124:	ffffffff 			; <UNDEFINED> instruction: 0xffffffff
 8003128:	ffffffff 			; <UNDEFINED> instruction: 0xffffffff
 800312c:	ffffffff 			; <UNDEFINED> instruction: 0xffffffff
 8003130:	ffffffff 			; <UNDEFINED> instruction: 0xffffffff
 8003134:	ffffffff 			; <UNDEFINED> instruction: 0xffffffff
 8003138:	ffffffff 			; <UNDEFINED> instruction: 0xffffffff
 800313c:	ffffffff 			; <UNDEFINED> instruction: 0xffffffff
 8003140:	ffffffff 			; <UNDEFINED> instruction: 0xffffffff
 8003144:	ffffffff 			; <UNDEFINED> instruction: 0xffffffff
 8003148:	ffffffff 			; <UNDEFINED> instruction: 0xffffffff
 800314c:	ffffffff 			; <UNDEFINED> instruction: 0xffffffff
 8003150:	ffffffff 			; <UNDEFINED> instruction: 0xffffffff
 8003154:	ffffffff 			; <UNDEFINED> instruction: 0xffffffff
 8003158:	ffffffff 			; <UNDEFINED> instruction: 0xffffffff
 800315c:	ffffffff 			; <UNDEFINED> instruction: 0xffffffff
 8003160:	ffffffff 			; <UNDEFINED> instruction: 0xffffffff
 8003164:	ffffffff 			; <UNDEFINED> instruction: 0xffffffff
 8003168:	ffffffff 			; <UNDEFINED> instruction: 0xffffffff
 800316c:	ffffffff 			; <UNDEFINED> instruction: 0xffffffff
 8003170:	ffffffff 			; <UNDEFINED> instruction: 0xffffffff
 8003174:	ffffffff 			; <UNDEFINED> instruction: 0xffffffff
 8003178:	ffffffff 			; <UNDEFINED> instruction: 0xffffffff
 800317c:	ffffffff 			; <UNDEFINED> instruction: 0xffffffff
 8003180:	ffffffff 			; <UNDEFINED> instruction: 0xffffffff
 8003184:	ffffffff 			; <UNDEFINED> instruction: 0xffffffff
 8003188:	ffffffff 			; <UNDEFINED> instruction: 0xffffffff
 800318c:	ffffffff 			; <UNDEFINED> instruction: 0xffffffff
 8003190:	ffffffff 			; <UNDEFINED> instruction: 0xffffffff
 8003194:	ffffffff 			; <UNDEFINED> instruction: 0xffffffff
 8003198:	ffffffff 			; <UNDEFINED> instruction: 0xffffffff
 800319c:	ffffffff 			; <UNDEFINED> instruction: 0xffffffff
 80031a0:	ffffffff 			; <UNDEFINED> instruction: 0xffffffff
 80031a4:	ffffffff 			; <UNDEFINED> instruction: 0xffffffff
 80031a8:	ffffffff 			; <UNDEFINED> instruction: 0xffffffff
 80031ac:	ffffffff 			; <UNDEFINED> instruction: 0xffffffff
 80031b0:	ffffffff 			; <UNDEFINED> instruction: 0xffffffff
 80031b4:	ffffffff 			; <UNDEFINED> instruction: 0xffffffff
 80031b8:	ffffffff 			; <UNDEFINED> instruction: 0xffffffff
 80031bc:	ffffffff 			; <UNDEFINED> instruction: 0xffffffff
 80031c0:	ffffffff 			; <UNDEFINED> instruction: 0xffffffff
 80031c4:	ffffffff 			; <UNDEFINED> instruction: 0xffffffff
 80031c8:	ffffffff 			; <UNDEFINED> instruction: 0xffffffff
 80031cc:	ffffffff 			; <UNDEFINED> instruction: 0xffffffff
 80031d0:	ffffffff 			; <UNDEFINED> instruction: 0xffffffff
 80031d4:	ffffffff 			; <UNDEFINED> instruction: 0xffffffff
 80031d8:	ffffffff 			; <UNDEFINED> instruction: 0xffffffff
 80031dc:	ffffffff 			; <UNDEFINED> instruction: 0xffffffff
 80031e0:	ffffffff 			; <UNDEFINED> instruction: 0xffffffff
 80031e4:	ffffffff 			; <UNDEFINED> instruction: 0xffffffff
 80031e8:	ffffffff 			; <UNDEFINED> instruction: 0xffffffff
 80031ec:	ffffffff 			; <UNDEFINED> instruction: 0xffffffff
 80031f0:	ffffffff 			; <UNDEFINED> instruction: 0xffffffff
 80031f4:	ffffffff 			; <UNDEFINED> instruction: 0xffffffff
 80031f8:	ffffffff 			; <UNDEFINED> instruction: 0xffffffff
 80031fc:	ffffffff 			; <UNDEFINED> instruction: 0xffffffff
 8003200:	ffffffff 			; <UNDEFINED> instruction: 0xffffffff
 8003204:	ffffffff 			; <UNDEFINED> instruction: 0xffffffff
 8003208:	ffffffff 			; <UNDEFINED> instruction: 0xffffffff
 800320c:	ffffffff 			; <UNDEFINED> instruction: 0xffffffff
 8003210:	ffffffff 			; <UNDEFINED> instruction: 0xffffffff
 8003214:	ffffffff 			; <UNDEFINED> instruction: 0xffffffff
 8003218:	ffffffff 			; <UNDEFINED> instruction: 0xffffffff
 800321c:	ffffffff 			; <UNDEFINED> instruction: 0xffffffff
 8003220:	ffffffff 			; <UNDEFINED> instruction: 0xffffffff
 8003224:	ffffffff 			; <UNDEFINED> instruction: 0xffffffff
 8003228:	ffffffff 			; <UNDEFINED> instruction: 0xffffffff
 800322c:	ffffffff 			; <UNDEFINED> instruction: 0xffffffff
 8003230:	ffffffff 			; <UNDEFINED> instruction: 0xffffffff
 8003234:	ffffffff 			; <UNDEFINED> instruction: 0xffffffff
 8003238:	ffffffff 			; <UNDEFINED> instruction: 0xffffffff
 800323c:	ffffffff 			; <UNDEFINED> instruction: 0xffffffff
 8003240:	ffffffff 			; <UNDEFINED> instruction: 0xffffffff
 8003244:	ffffffff 			; <UNDEFINED> instruction: 0xffffffff
 8003248:	ffffffff 			; <UNDEFINED> instruction: 0xffffffff
 800324c:	ffffffff 			; <UNDEFINED> instruction: 0xffffffff
 8003250:	ffffffff 			; <UNDEFINED> instruction: 0xffffffff
 8003254:	ffffffff 			; <UNDEFINED> instruction: 0xffffffff
 8003258:	ffffffff 			; <UNDEFINED> instruction: 0xffffffff
 800325c:	ffffffff 			; <UNDEFINED> instruction: 0xffffffff
 8003260:	ffffffff 			; <UNDEFINED> instruction: 0xffffffff
 8003264:	ffffffff 			; <UNDEFINED> instruction: 0xffffffff
 8003268:	ffffffff 			; <UNDEFINED> instruction: 0xffffffff
 800326c:	ffffffff 			; <UNDEFINED> instruction: 0xffffffff
 8003270:	ffffffff 			; <UNDEFINED> instruction: 0xffffffff
 8003274:	ffffffff 			; <UNDEFINED> instruction: 0xffffffff
 8003278:	ffffffff 			; <UNDEFINED> instruction: 0xffffffff
 800327c:	ffffffff 			; <UNDEFINED> instruction: 0xffffffff
 8003280:	ffffffff 			; <UNDEFINED> instruction: 0xffffffff
 8003284:	ffffffff 			; <UNDEFINED> instruction: 0xffffffff
 8003288:	ffffffff 			; <UNDEFINED> instruction: 0xffffffff
 800328c:	ffffffff 			; <UNDEFINED> instruction: 0xffffffff
 8003290:	ffffffff 			; <UNDEFINED> instruction: 0xffffffff
 8003294:	ffffffff 			; <UNDEFINED> instruction: 0xffffffff
 8003298:	ffffffff 			; <UNDEFINED> instruction: 0xffffffff
 800329c:	ffffffff 			; <UNDEFINED> instruction: 0xffffffff
 80032a0:	ffffffff 			; <UNDEFINED> instruction: 0xffffffff
 80032a4:	ffffffff 			; <UNDEFINED> instruction: 0xffffffff
 80032a8:	ffffffff 			; <UNDEFINED> instruction: 0xffffffff
 80032ac:	ffffffff 			; <UNDEFINED> instruction: 0xffffffff
 80032b0:	ffffffff 			; <UNDEFINED> instruction: 0xffffffff
 80032b4:	ffffffff 			; <UNDEFINED> instruction: 0xffffffff
 80032b8:	ffffffff 			; <UNDEFINED> instruction: 0xffffffff
 80032bc:	ffffffff 			; <UNDEFINED> instruction: 0xffffffff
 80032c0:	ffffffff 			; <UNDEFINED> instruction: 0xffffffff
 80032c4:	ffffffff 			; <UNDEFINED> instruction: 0xffffffff
 80032c8:	ffffffff 			; <UNDEFINED> instruction: 0xffffffff
 80032cc:	ffffffff 			; <UNDEFINED> instruction: 0xffffffff
 80032d0:	ffffffff 			; <UNDEFINED> instruction: 0xffffffff
 80032d4:	ffffffff 			; <UNDEFINED> instruction: 0xffffffff
 80032d8:	ffffffff 			; <UNDEFINED> instruction: 0xffffffff
 80032dc:	ffffffff 			; <UNDEFINED> instruction: 0xffffffff
 80032e0:	ffffffff 			; <UNDEFINED> instruction: 0xffffffff
 80032e4:	ffffffff 			; <UNDEFINED> instruction: 0xffffffff
 80032e8:	ffffffff 			; <UNDEFINED> instruction: 0xffffffff
 80032ec:	ffffffff 			; <UNDEFINED> instruction: 0xffffffff
 80032f0:	ffffffff 			; <UNDEFINED> instruction: 0xffffffff
 80032f4:	ffffffff 			; <UNDEFINED> instruction: 0xffffffff
 80032f8:	ffffffff 			; <UNDEFINED> instruction: 0xffffffff
 80032fc:	ffffffff 			; <UNDEFINED> instruction: 0xffffffff
 8003300:	ffffffff 			; <UNDEFINED> instruction: 0xffffffff
 8003304:	ffffffff 			; <UNDEFINED> instruction: 0xffffffff
 8003308:	ffffffff 			; <UNDEFINED> instruction: 0xffffffff
 800330c:	ffffffff 			; <UNDEFINED> instruction: 0xffffffff
 8003310:	ffffffff 			; <UNDEFINED> instruction: 0xffffffff
 8003314:	ffffffff 			; <UNDEFINED> instruction: 0xffffffff
 8003318:	ffffffff 			; <UNDEFINED> instruction: 0xffffffff
 800331c:	ffffffff 			; <UNDEFINED> instruction: 0xffffffff
 8003320:	ffffffff 			; <UNDEFINED> instruction: 0xffffffff
 8003324:	ffffffff 			; <UNDEFINED> instruction: 0xffffffff
 8003328:	ffffffff 			; <UNDEFINED> instruction: 0xffffffff
 800332c:	ffffffff 			; <UNDEFINED> instruction: 0xffffffff
 8003330:	ffffffff 			; <UNDEFINED> instruction: 0xffffffff
 8003334:	ffffffff 			; <UNDEFINED> instruction: 0xffffffff
 8003338:	ffffffff 			; <UNDEFINED> instruction: 0xffffffff
 800333c:	ffffffff 			; <UNDEFINED> instruction: 0xffffffff
 8003340:	ffffffff 			; <UNDEFINED> instruction: 0xffffffff
 8003344:	ffffffff 			; <UNDEFINED> instruction: 0xffffffff
 8003348:	ffffffff 			; <UNDEFINED> instruction: 0xffffffff
 800334c:	ffffffff 			; <UNDEFINED> instruction: 0xffffffff
 8003350:	ffffffff 			; <UNDEFINED> instruction: 0xffffffff
 8003354:	ffffffff 			; <UNDEFINED> instruction: 0xffffffff
 8003358:	ffffffff 			; <UNDEFINED> instruction: 0xffffffff
 800335c:	ffffffff 			; <UNDEFINED> instruction: 0xffffffff
 8003360:	ffffffff 			; <UNDEFINED> instruction: 0xffffffff
 8003364:	ffffffff 			; <UNDEFINED> instruction: 0xffffffff
 8003368:	ffffffff 			; <UNDEFINED> instruction: 0xffffffff
 800336c:	ffffffff 			; <UNDEFINED> instruction: 0xffffffff
 8003370:	ffffffff 			; <UNDEFINED> instruction: 0xffffffff
 8003374:	ffffffff 			; <UNDEFINED> instruction: 0xffffffff
 8003378:	ffffffff 			; <UNDEFINED> instruction: 0xffffffff
 800337c:	ffffffff 			; <UNDEFINED> instruction: 0xffffffff
 8003380:	ffffffff 			; <UNDEFINED> instruction: 0xffffffff
 8003384:	ffffffff 			; <UNDEFINED> instruction: 0xffffffff
 8003388:	ffffffff 			; <UNDEFINED> instruction: 0xffffffff
 800338c:	ffffffff 			; <UNDEFINED> instruction: 0xffffffff
 8003390:	ffffffff 			; <UNDEFINED> instruction: 0xffffffff
 8003394:	ffffffff 			; <UNDEFINED> instruction: 0xffffffff
 8003398:	ffffffff 			; <UNDEFINED> instruction: 0xffffffff
 800339c:	ffffffff 			; <UNDEFINED> instruction: 0xffffffff
 80033a0:	ffffffff 			; <UNDEFINED> instruction: 0xffffffff
 80033a4:	ffffffff 			; <UNDEFINED> instruction: 0xffffffff
 80033a8:	ffffffff 			; <UNDEFINED> instruction: 0xffffffff
 80033ac:	ffffffff 			; <UNDEFINED> instruction: 0xffffffff
 80033b0:	ffffffff 			; <UNDEFINED> instruction: 0xffffffff
 80033b4:	ffffffff 			; <UNDEFINED> instruction: 0xffffffff
 80033b8:	ffffffff 			; <UNDEFINED> instruction: 0xffffffff
 80033bc:	ffffffff 			; <UNDEFINED> instruction: 0xffffffff
 80033c0:	ffffffff 			; <UNDEFINED> instruction: 0xffffffff
 80033c4:	ffffffff 			; <UNDEFINED> instruction: 0xffffffff
 80033c8:	ffffffff 			; <UNDEFINED> instruction: 0xffffffff
 80033cc:	ffffffff 			; <UNDEFINED> instruction: 0xffffffff
 80033d0:	ffffffff 			; <UNDEFINED> instruction: 0xffffffff
 80033d4:	ffffffff 			; <UNDEFINED> instruction: 0xffffffff
 80033d8:	ffffffff 			; <UNDEFINED> instruction: 0xffffffff
 80033dc:	ffffffff 			; <UNDEFINED> instruction: 0xffffffff
 80033e0:	ffffffff 			; <UNDEFINED> instruction: 0xffffffff
 80033e4:	ffffffff 			; <UNDEFINED> instruction: 0xffffffff
 80033e8:	ffffffff 			; <UNDEFINED> instruction: 0xffffffff
 80033ec:	ffffffff 			; <UNDEFINED> instruction: 0xffffffff
 80033f0:	ffffffff 			; <UNDEFINED> instruction: 0xffffffff
 80033f4:	ffffffff 			; <UNDEFINED> instruction: 0xffffffff
 80033f8:	ffffffff 			; <UNDEFINED> instruction: 0xffffffff
 80033fc:	ffffffff 			; <UNDEFINED> instruction: 0xffffffff
 8003400:	ffffffff 			; <UNDEFINED> instruction: 0xffffffff
 8003404:	ffffffff 			; <UNDEFINED> instruction: 0xffffffff
 8003408:	ffffffff 			; <UNDEFINED> instruction: 0xffffffff
 800340c:	ffffffff 			; <UNDEFINED> instruction: 0xffffffff
 8003410:	ffffffff 			; <UNDEFINED> instruction: 0xffffffff
 8003414:	ffffffff 			; <UNDEFINED> instruction: 0xffffffff
 8003418:	ffffffff 			; <UNDEFINED> instruction: 0xffffffff
 800341c:	ffffffff 			; <UNDEFINED> instruction: 0xffffffff
 8003420:	ffffffff 			; <UNDEFINED> instruction: 0xffffffff
 8003424:	ffffffff 			; <UNDEFINED> instruction: 0xffffffff
 8003428:	ffffffff 			; <UNDEFINED> instruction: 0xffffffff
 800342c:	ffffffff 			; <UNDEFINED> instruction: 0xffffffff
 8003430:	ffffffff 			; <UNDEFINED> instruction: 0xffffffff
 8003434:	ffffffff 			; <UNDEFINED> instruction: 0xffffffff
 8003438:	ffffffff 			; <UNDEFINED> instruction: 0xffffffff
 800343c:	ffffffff 			; <UNDEFINED> instruction: 0xffffffff
 8003440:	ffffffff 			; <UNDEFINED> instruction: 0xffffffff
 8003444:	ffffffff 			; <UNDEFINED> instruction: 0xffffffff
 8003448:	ffffffff 			; <UNDEFINED> instruction: 0xffffffff
 800344c:	ffffffff 			; <UNDEFINED> instruction: 0xffffffff
 8003450:	ffffffff 			; <UNDEFINED> instruction: 0xffffffff
 8003454:	ffffffff 			; <UNDEFINED> instruction: 0xffffffff
 8003458:	ffffffff 			; <UNDEFINED> instruction: 0xffffffff
 800345c:	ffffffff 			; <UNDEFINED> instruction: 0xffffffff
 8003460:	ffffffff 			; <UNDEFINED> instruction: 0xffffffff
 8003464:	ffffffff 			; <UNDEFINED> instruction: 0xffffffff
 8003468:	ffffffff 			; <UNDEFINED> instruction: 0xffffffff
 800346c:	ffffffff 			; <UNDEFINED> instruction: 0xffffffff
 8003470:	ffffffff 			; <UNDEFINED> instruction: 0xffffffff
 8003474:	ffffffff 			; <UNDEFINED> instruction: 0xffffffff
 8003478:	ffffffff 			; <UNDEFINED> instruction: 0xffffffff
 800347c:	ffffffff 			; <UNDEFINED> instruction: 0xffffffff
 8003480:	ffffffff 			; <UNDEFINED> instruction: 0xffffffff
 8003484:	ffffffff 			; <UNDEFINED> instruction: 0xffffffff
 8003488:	ffffffff 			; <UNDEFINED> instruction: 0xffffffff
 800348c:	ffffffff 			; <UNDEFINED> instruction: 0xffffffff
 8003490:	ffffffff 			; <UNDEFINED> instruction: 0xffffffff
 8003494:	ffffffff 			; <UNDEFINED> instruction: 0xffffffff
 8003498:	ffffffff 			; <UNDEFINED> instruction: 0xffffffff
 800349c:	ffffffff 			; <UNDEFINED> instruction: 0xffffffff
 80034a0:	ffffffff 			; <UNDEFINED> instruction: 0xffffffff
 80034a4:	ffffffff 			; <UNDEFINED> instruction: 0xffffffff
 80034a8:	ffffffff 			; <UNDEFINED> instruction: 0xffffffff
 80034ac:	ffffffff 			; <UNDEFINED> instruction: 0xffffffff
 80034b0:	ffffffff 			; <UNDEFINED> instruction: 0xffffffff
 80034b4:	ffffffff 			; <UNDEFINED> instruction: 0xffffffff
 80034b8:	ffffffff 			; <UNDEFINED> instruction: 0xffffffff
 80034bc:	ffffffff 			; <UNDEFINED> instruction: 0xffffffff
 80034c0:	ffffffff 			; <UNDEFINED> instruction: 0xffffffff
 80034c4:	ffffffff 			; <UNDEFINED> instruction: 0xffffffff
 80034c8:	ffffffff 			; <UNDEFINED> instruction: 0xffffffff
 80034cc:	ffffffff 			; <UNDEFINED> instruction: 0xffffffff
 80034d0:	ffffffff 			; <UNDEFINED> instruction: 0xffffffff
 80034d4:	ffffffff 			; <UNDEFINED> instruction: 0xffffffff
 80034d8:	ffffffff 			; <UNDEFINED> instruction: 0xffffffff
 80034dc:	ffffffff 			; <UNDEFINED> instruction: 0xffffffff
 80034e0:	ffffffff 			; <UNDEFINED> instruction: 0xffffffff
 80034e4:	ffffffff 			; <UNDEFINED> instruction: 0xffffffff
 80034e8:	ffffffff 			; <UNDEFINED> instruction: 0xffffffff
 80034ec:	ffffffff 			; <UNDEFINED> instruction: 0xffffffff
 80034f0:	ffffffff 			; <UNDEFINED> instruction: 0xffffffff
 80034f4:	ffffffff 			; <UNDEFINED> instruction: 0xffffffff
 80034f8:	ffffffff 			; <UNDEFINED> instruction: 0xffffffff
 80034fc:	ffffffff 			; <UNDEFINED> instruction: 0xffffffff
 8003500:	ffffffff 			; <UNDEFINED> instruction: 0xffffffff
 8003504:	ffffffff 			; <UNDEFINED> instruction: 0xffffffff
 8003508:	ffffffff 			; <UNDEFINED> instruction: 0xffffffff
 800350c:	ffffffff 			; <UNDEFINED> instruction: 0xffffffff
 8003510:	ffffffff 			; <UNDEFINED> instruction: 0xffffffff
 8003514:	ffffffff 			; <UNDEFINED> instruction: 0xffffffff
 8003518:	ffffffff 			; <UNDEFINED> instruction: 0xffffffff
 800351c:	ffffffff 			; <UNDEFINED> instruction: 0xffffffff
 8003520:	ffffffff 			; <UNDEFINED> instruction: 0xffffffff
 8003524:	ffffffff 			; <UNDEFINED> instruction: 0xffffffff
 8003528:	ffffffff 			; <UNDEFINED> instruction: 0xffffffff
 800352c:	ffffffff 			; <UNDEFINED> instruction: 0xffffffff
 8003530:	ffffffff 			; <UNDEFINED> instruction: 0xffffffff
 8003534:	ffffffff 			; <UNDEFINED> instruction: 0xffffffff
 8003538:	ffffffff 			; <UNDEFINED> instruction: 0xffffffff
 800353c:	ffffffff 			; <UNDEFINED> instruction: 0xffffffff
 8003540:	ffffffff 			; <UNDEFINED> instruction: 0xffffffff
 8003544:	ffffffff 			; <UNDEFINED> instruction: 0xffffffff
 8003548:	ffffffff 			; <UNDEFINED> instruction: 0xffffffff
 800354c:	ffffffff 			; <UNDEFINED> instruction: 0xffffffff
 8003550:	ffffffff 			; <UNDEFINED> instruction: 0xffffffff
 8003554:	ffffffff 			; <UNDEFINED> instruction: 0xffffffff
 8003558:	ffffffff 			; <UNDEFINED> instruction: 0xffffffff
 800355c:	ffffffff 			; <UNDEFINED> instruction: 0xffffffff
 8003560:	ffffffff 			; <UNDEFINED> instruction: 0xffffffff
 8003564:	ffffffff 			; <UNDEFINED> instruction: 0xffffffff
 8003568:	ffffffff 			; <UNDEFINED> instruction: 0xffffffff
 800356c:	ffffffff 			; <UNDEFINED> instruction: 0xffffffff
 8003570:	ffffffff 			; <UNDEFINED> instruction: 0xffffffff
 8003574:	ffffffff 			; <UNDEFINED> instruction: 0xffffffff
 8003578:	ffffffff 			; <UNDEFINED> instruction: 0xffffffff
 800357c:	ffffffff 			; <UNDEFINED> instruction: 0xffffffff
 8003580:	ffffffff 			; <UNDEFINED> instruction: 0xffffffff
 8003584:	ffffffff 			; <UNDEFINED> instruction: 0xffffffff
 8003588:	ffffffff 			; <UNDEFINED> instruction: 0xffffffff
 800358c:	ffffffff 			; <UNDEFINED> instruction: 0xffffffff
 8003590:	ffffffff 			; <UNDEFINED> instruction: 0xffffffff
 8003594:	ffffffff 			; <UNDEFINED> instruction: 0xffffffff
 8003598:	ffffffff 			; <UNDEFINED> instruction: 0xffffffff
 800359c:	ffffffff 			; <UNDEFINED> instruction: 0xffffffff
 80035a0:	ffffffff 			; <UNDEFINED> instruction: 0xffffffff
 80035a4:	ffffffff 			; <UNDEFINED> instruction: 0xffffffff
 80035a8:	ffffffff 			; <UNDEFINED> instruction: 0xffffffff
 80035ac:	ffffffff 			; <UNDEFINED> instruction: 0xffffffff
 80035b0:	ffffffff 			; <UNDEFINED> instruction: 0xffffffff
 80035b4:	ffffffff 			; <UNDEFINED> instruction: 0xffffffff
 80035b8:	ffffffff 			; <UNDEFINED> instruction: 0xffffffff
 80035bc:	ffffffff 			; <UNDEFINED> instruction: 0xffffffff
 80035c0:	ffffffff 			; <UNDEFINED> instruction: 0xffffffff
 80035c4:	ffffffff 			; <UNDEFINED> instruction: 0xffffffff
 80035c8:	ffffffff 			; <UNDEFINED> instruction: 0xffffffff
 80035cc:	ffffffff 			; <UNDEFINED> instruction: 0xffffffff
 80035d0:	ffffffff 			; <UNDEFINED> instruction: 0xffffffff
 80035d4:	ffffffff 			; <UNDEFINED> instruction: 0xffffffff
 80035d8:	ffffffff 			; <UNDEFINED> instruction: 0xffffffff
 80035dc:	ffffffff 			; <UNDEFINED> instruction: 0xffffffff
 80035e0:	ffffffff 			; <UNDEFINED> instruction: 0xffffffff
 80035e4:	ffffffff 			; <UNDEFINED> instruction: 0xffffffff
 80035e8:	ffffffff 			; <UNDEFINED> instruction: 0xffffffff
 80035ec:	ffffffff 			; <UNDEFINED> instruction: 0xffffffff
 80035f0:	ffffffff 			; <UNDEFINED> instruction: 0xffffffff
 80035f4:	ffffffff 			; <UNDEFINED> instruction: 0xffffffff
 80035f8:	ffffffff 			; <UNDEFINED> instruction: 0xffffffff
 80035fc:	ffffffff 			; <UNDEFINED> instruction: 0xffffffff
 8003600:	ffffffff 			; <UNDEFINED> instruction: 0xffffffff
 8003604:	ffffffff 			; <UNDEFINED> instruction: 0xffffffff
 8003608:	ffffffff 			; <UNDEFINED> instruction: 0xffffffff
 800360c:	ffffffff 			; <UNDEFINED> instruction: 0xffffffff
 8003610:	ffffffff 			; <UNDEFINED> instruction: 0xffffffff
 8003614:	ffffffff 			; <UNDEFINED> instruction: 0xffffffff
 8003618:	ffffffff 			; <UNDEFINED> instruction: 0xffffffff
 800361c:	ffffffff 			; <UNDEFINED> instruction: 0xffffffff
 8003620:	ffffffff 			; <UNDEFINED> instruction: 0xffffffff
 8003624:	ffffffff 			; <UNDEFINED> instruction: 0xffffffff
 8003628:	ffffffff 			; <UNDEFINED> instruction: 0xffffffff
 800362c:	ffffffff 			; <UNDEFINED> instruction: 0xffffffff
 8003630:	ffffffff 			; <UNDEFINED> instruction: 0xffffffff
 8003634:	ffffffff 			; <UNDEFINED> instruction: 0xffffffff
 8003638:	ffffffff 			; <UNDEFINED> instruction: 0xffffffff
 800363c:	ffffffff 			; <UNDEFINED> instruction: 0xffffffff
 8003640:	ffffffff 			; <UNDEFINED> instruction: 0xffffffff
 8003644:	ffffffff 			; <UNDEFINED> instruction: 0xffffffff
 8003648:	ffffffff 			; <UNDEFINED> instruction: 0xffffffff
 800364c:	ffffffff 			; <UNDEFINED> instruction: 0xffffffff
 8003650:	ffffffff 			; <UNDEFINED> instruction: 0xffffffff
 8003654:	ffffffff 			; <UNDEFINED> instruction: 0xffffffff
 8003658:	ffffffff 			; <UNDEFINED> instruction: 0xffffffff
 800365c:	ffffffff 			; <UNDEFINED> instruction: 0xffffffff
 8003660:	ffffffff 			; <UNDEFINED> instruction: 0xffffffff
 8003664:	ffffffff 			; <UNDEFINED> instruction: 0xffffffff
 8003668:	ffffffff 			; <UNDEFINED> instruction: 0xffffffff
 800366c:	ffffffff 			; <UNDEFINED> instruction: 0xffffffff
 8003670:	ffffffff 			; <UNDEFINED> instruction: 0xffffffff
 8003674:	ffffffff 			; <UNDEFINED> instruction: 0xffffffff
 8003678:	ffffffff 			; <UNDEFINED> instruction: 0xffffffff
 800367c:	ffffffff 			; <UNDEFINED> instruction: 0xffffffff
 8003680:	ffffffff 			; <UNDEFINED> instruction: 0xffffffff
 8003684:	ffffffff 			; <UNDEFINED> instruction: 0xffffffff
 8003688:	ffffffff 			; <UNDEFINED> instruction: 0xffffffff
 800368c:	ffffffff 			; <UNDEFINED> instruction: 0xffffffff
 8003690:	ffffffff 			; <UNDEFINED> instruction: 0xffffffff
 8003694:	ffffffff 			; <UNDEFINED> instruction: 0xffffffff
 8003698:	ffffffff 			; <UNDEFINED> instruction: 0xffffffff
 800369c:	ffffffff 			; <UNDEFINED> instruction: 0xffffffff
 80036a0:	ffffffff 			; <UNDEFINED> instruction: 0xffffffff
 80036a4:	ffffffff 			; <UNDEFINED> instruction: 0xffffffff
 80036a8:	ffffffff 			; <UNDEFINED> instruction: 0xffffffff
 80036ac:	ffffffff 			; <UNDEFINED> instruction: 0xffffffff
 80036b0:	ffffffff 			; <UNDEFINED> instruction: 0xffffffff
 80036b4:	ffffffff 			; <UNDEFINED> instruction: 0xffffffff
 80036b8:	ffffffff 			; <UNDEFINED> instruction: 0xffffffff
 80036bc:	ffffffff 			; <UNDEFINED> instruction: 0xffffffff
 80036c0:	ffffffff 			; <UNDEFINED> instruction: 0xffffffff
 80036c4:	ffffffff 			; <UNDEFINED> instruction: 0xffffffff
 80036c8:	ffffffff 			; <UNDEFINED> instruction: 0xffffffff
 80036cc:	ffffffff 			; <UNDEFINED> instruction: 0xffffffff
 80036d0:	ffffffff 			; <UNDEFINED> instruction: 0xffffffff
 80036d4:	ffffffff 			; <UNDEFINED> instruction: 0xffffffff
 80036d8:	ffffffff 			; <UNDEFINED> instruction: 0xffffffff
 80036dc:	ffffffff 			; <UNDEFINED> instruction: 0xffffffff
 80036e0:	ffffffff 			; <UNDEFINED> instruction: 0xffffffff
 80036e4:	ffffffff 			; <UNDEFINED> instruction: 0xffffffff
 80036e8:	ffffffff 			; <UNDEFINED> instruction: 0xffffffff
 80036ec:	ffffffff 			; <UNDEFINED> instruction: 0xffffffff
 80036f0:	ffffffff 			; <UNDEFINED> instruction: 0xffffffff
 80036f4:	ffffffff 			; <UNDEFINED> instruction: 0xffffffff
 80036f8:	ffffffff 			; <UNDEFINED> instruction: 0xffffffff
 80036fc:	ffffffff 			; <UNDEFINED> instruction: 0xffffffff
 8003700:	ffffffff 			; <UNDEFINED> instruction: 0xffffffff
 8003704:	ffffffff 			; <UNDEFINED> instruction: 0xffffffff
 8003708:	ffffffff 			; <UNDEFINED> instruction: 0xffffffff
 800370c:	ffffffff 			; <UNDEFINED> instruction: 0xffffffff
 8003710:	ffffffff 			; <UNDEFINED> instruction: 0xffffffff
 8003714:	ffffffff 			; <UNDEFINED> instruction: 0xffffffff
 8003718:	ffffffff 			; <UNDEFINED> instruction: 0xffffffff
 800371c:	ffffffff 			; <UNDEFINED> instruction: 0xffffffff
 8003720:	ffffffff 			; <UNDEFINED> instruction: 0xffffffff
 8003724:	ffffffff 			; <UNDEFINED> instruction: 0xffffffff
 8003728:	ffffffff 			; <UNDEFINED> instruction: 0xffffffff
 800372c:	ffffffff 			; <UNDEFINED> instruction: 0xffffffff
 8003730:	ffffffff 			; <UNDEFINED> instruction: 0xffffffff
 8003734:	ffffffff 			; <UNDEFINED> instruction: 0xffffffff
 8003738:	ffffffff 			; <UNDEFINED> instruction: 0xffffffff
 800373c:	ffffffff 			; <UNDEFINED> instruction: 0xffffffff
 8003740:	ffffffff 			; <UNDEFINED> instruction: 0xffffffff
 8003744:	ffffffff 			; <UNDEFINED> instruction: 0xffffffff
 8003748:	ffffffff 			; <UNDEFINED> instruction: 0xffffffff
 800374c:	ffffffff 			; <UNDEFINED> instruction: 0xffffffff
 8003750:	ffffffff 			; <UNDEFINED> instruction: 0xffffffff
 8003754:	ffffffff 			; <UNDEFINED> instruction: 0xffffffff
 8003758:	ffffffff 			; <UNDEFINED> instruction: 0xffffffff
 800375c:	ffffffff 			; <UNDEFINED> instruction: 0xffffffff
 8003760:	ffffffff 			; <UNDEFINED> instruction: 0xffffffff
 8003764:	ffffffff 			; <UNDEFINED> instruction: 0xffffffff
 8003768:	ffffffff 			; <UNDEFINED> instruction: 0xffffffff
 800376c:	ffffffff 			; <UNDEFINED> instruction: 0xffffffff
 8003770:	ffffffff 			; <UNDEFINED> instruction: 0xffffffff
 8003774:	ffffffff 			; <UNDEFINED> instruction: 0xffffffff
 8003778:	ffffffff 			; <UNDEFINED> instruction: 0xffffffff
 800377c:	ffffffff 			; <UNDEFINED> instruction: 0xffffffff
 8003780:	ffffffff 			; <UNDEFINED> instruction: 0xffffffff
 8003784:	ffffffff 			; <UNDEFINED> instruction: 0xffffffff
 8003788:	ffffffff 			; <UNDEFINED> instruction: 0xffffffff
 800378c:	ffffffff 			; <UNDEFINED> instruction: 0xffffffff
 8003790:	ffffffff 			; <UNDEFINED> instruction: 0xffffffff
 8003794:	ffffffff 			; <UNDEFINED> instruction: 0xffffffff
 8003798:	ffffffff 			; <UNDEFINED> instruction: 0xffffffff
 800379c:	ffffffff 			; <UNDEFINED> instruction: 0xffffffff
 80037a0:	ffffffff 			; <UNDEFINED> instruction: 0xffffffff
 80037a4:	ffffffff 			; <UNDEFINED> instruction: 0xffffffff
 80037a8:	ffffffff 			; <UNDEFINED> instruction: 0xffffffff
 80037ac:	ffffffff 			; <UNDEFINED> instruction: 0xffffffff
 80037b0:	ffffffff 			; <UNDEFINED> instruction: 0xffffffff
 80037b4:	ffffffff 			; <UNDEFINED> instruction: 0xffffffff
 80037b8:	ffffffff 			; <UNDEFINED> instruction: 0xffffffff
 80037bc:	ffffffff 			; <UNDEFINED> instruction: 0xffffffff
 80037c0:	ffffffff 			; <UNDEFINED> instruction: 0xffffffff
 80037c4:	ffffffff 			; <UNDEFINED> instruction: 0xffffffff
 80037c8:	ffffffff 			; <UNDEFINED> instruction: 0xffffffff
 80037cc:	ffffffff 			; <UNDEFINED> instruction: 0xffffffff
 80037d0:	ffffffff 			; <UNDEFINED> instruction: 0xffffffff
 80037d4:	ffffffff 			; <UNDEFINED> instruction: 0xffffffff
 80037d8:	ffffffff 			; <UNDEFINED> instruction: 0xffffffff
 80037dc:	ffffffff 			; <UNDEFINED> instruction: 0xffffffff
 80037e0:	ffffffff 			; <UNDEFINED> instruction: 0xffffffff
 80037e4:	ffffffff 			; <UNDEFINED> instruction: 0xffffffff
 80037e8:	ffffffff 			; <UNDEFINED> instruction: 0xffffffff
 80037ec:	ffffffff 			; <UNDEFINED> instruction: 0xffffffff
 80037f0:	ffffffff 			; <UNDEFINED> instruction: 0xffffffff
 80037f4:	ffffffff 			; <UNDEFINED> instruction: 0xffffffff
 80037f8:	ffffffff 			; <UNDEFINED> instruction: 0xffffffff
 80037fc:	ffffffff 			; <UNDEFINED> instruction: 0xffffffff
 8003800:	ffffffff 			; <UNDEFINED> instruction: 0xffffffff
 8003804:	ffffffff 			; <UNDEFINED> instruction: 0xffffffff
 8003808:	ffffffff 			; <UNDEFINED> instruction: 0xffffffff
 800380c:	ffffffff 			; <UNDEFINED> instruction: 0xffffffff
 8003810:	ffffffff 			; <UNDEFINED> instruction: 0xffffffff
 8003814:	ffffffff 			; <UNDEFINED> instruction: 0xffffffff
 8003818:	ffffffff 			; <UNDEFINED> instruction: 0xffffffff
 800381c:	ffffffff 			; <UNDEFINED> instruction: 0xffffffff
 8003820:	ffffffff 			; <UNDEFINED> instruction: 0xffffffff
 8003824:	ffffffff 			; <UNDEFINED> instruction: 0xffffffff
 8003828:	ffffffff 			; <UNDEFINED> instruction: 0xffffffff
 800382c:	ffffffff 			; <UNDEFINED> instruction: 0xffffffff
 8003830:	ffffffff 			; <UNDEFINED> instruction: 0xffffffff
 8003834:	ffffffff 			; <UNDEFINED> instruction: 0xffffffff
 8003838:	ffffffff 			; <UNDEFINED> instruction: 0xffffffff
 800383c:	ffffffff 			; <UNDEFINED> instruction: 0xffffffff
 8003840:	ffffffff 			; <UNDEFINED> instruction: 0xffffffff
 8003844:	ffffffff 			; <UNDEFINED> instruction: 0xffffffff
 8003848:	ffffffff 			; <UNDEFINED> instruction: 0xffffffff
 800384c:	ffffffff 			; <UNDEFINED> instruction: 0xffffffff
 8003850:	ffffffff 			; <UNDEFINED> instruction: 0xffffffff
 8003854:	ffffffff 			; <UNDEFINED> instruction: 0xffffffff
 8003858:	ffffffff 			; <UNDEFINED> instruction: 0xffffffff
 800385c:	ffffffff 			; <UNDEFINED> instruction: 0xffffffff
 8003860:	ffffffff 			; <UNDEFINED> instruction: 0xffffffff
 8003864:	ffffffff 			; <UNDEFINED> instruction: 0xffffffff
 8003868:	ffffffff 			; <UNDEFINED> instruction: 0xffffffff
 800386c:	ffffffff 			; <UNDEFINED> instruction: 0xffffffff
 8003870:	ffffffff 			; <UNDEFINED> instruction: 0xffffffff
 8003874:	ffffffff 			; <UNDEFINED> instruction: 0xffffffff
 8003878:	ffffffff 			; <UNDEFINED> instruction: 0xffffffff
 800387c:	ffffffff 			; <UNDEFINED> instruction: 0xffffffff
 8003880:	ffffffff 			; <UNDEFINED> instruction: 0xffffffff
 8003884:	ffffffff 			; <UNDEFINED> instruction: 0xffffffff
 8003888:	ffffffff 			; <UNDEFINED> instruction: 0xffffffff
 800388c:	ffffffff 			; <UNDEFINED> instruction: 0xffffffff
 8003890:	ffffffff 			; <UNDEFINED> instruction: 0xffffffff
 8003894:	ffffffff 			; <UNDEFINED> instruction: 0xffffffff
 8003898:	ffffffff 			; <UNDEFINED> instruction: 0xffffffff
 800389c:	ffffffff 			; <UNDEFINED> instruction: 0xffffffff
 80038a0:	ffffffff 			; <UNDEFINED> instruction: 0xffffffff
 80038a4:	ffffffff 			; <UNDEFINED> instruction: 0xffffffff
 80038a8:	ffffffff 			; <UNDEFINED> instruction: 0xffffffff
 80038ac:	ffffffff 			; <UNDEFINED> instruction: 0xffffffff
 80038b0:	ffffffff 			; <UNDEFINED> instruction: 0xffffffff
 80038b4:	ffffffff 			; <UNDEFINED> instruction: 0xffffffff
 80038b8:	ffffffff 			; <UNDEFINED> instruction: 0xffffffff
 80038bc:	ffffffff 			; <UNDEFINED> instruction: 0xffffffff
 80038c0:	ffffffff 			; <UNDEFINED> instruction: 0xffffffff
 80038c4:	ffffffff 			; <UNDEFINED> instruction: 0xffffffff
 80038c8:	ffffffff 			; <UNDEFINED> instruction: 0xffffffff
 80038cc:	ffffffff 			; <UNDEFINED> instruction: 0xffffffff
 80038d0:	ffffffff 			; <UNDEFINED> instruction: 0xffffffff
 80038d4:	ffffffff 			; <UNDEFINED> instruction: 0xffffffff
 80038d8:	ffffffff 			; <UNDEFINED> instruction: 0xffffffff
 80038dc:	ffffffff 			; <UNDEFINED> instruction: 0xffffffff
 80038e0:	ffffffff 			; <UNDEFINED> instruction: 0xffffffff
 80038e4:	ffffffff 			; <UNDEFINED> instruction: 0xffffffff
 80038e8:	ffffffff 			; <UNDEFINED> instruction: 0xffffffff
 80038ec:	ffffffff 			; <UNDEFINED> instruction: 0xffffffff
 80038f0:	ffffffff 			; <UNDEFINED> instruction: 0xffffffff
 80038f4:	ffffffff 			; <UNDEFINED> instruction: 0xffffffff
 80038f8:	ffffffff 			; <UNDEFINED> instruction: 0xffffffff
 80038fc:	ffffffff 			; <UNDEFINED> instruction: 0xffffffff
 8003900:	ffffffff 			; <UNDEFINED> instruction: 0xffffffff
 8003904:	ffffffff 			; <UNDEFINED> instruction: 0xffffffff
 8003908:	ffffffff 			; <UNDEFINED> instruction: 0xffffffff
 800390c:	ffffffff 			; <UNDEFINED> instruction: 0xffffffff
 8003910:	ffffffff 			; <UNDEFINED> instruction: 0xffffffff
 8003914:	ffffffff 			; <UNDEFINED> instruction: 0xffffffff
 8003918:	ffffffff 			; <UNDEFINED> instruction: 0xffffffff
 800391c:	ffffffff 			; <UNDEFINED> instruction: 0xffffffff
 8003920:	ffffffff 			; <UNDEFINED> instruction: 0xffffffff
 8003924:	ffffffff 			; <UNDEFINED> instruction: 0xffffffff
 8003928:	ffffffff 			; <UNDEFINED> instruction: 0xffffffff
 800392c:	ffffffff 			; <UNDEFINED> instruction: 0xffffffff
 8003930:	ffffffff 			; <UNDEFINED> instruction: 0xffffffff
 8003934:	ffffffff 			; <UNDEFINED> instruction: 0xffffffff
 8003938:	ffffffff 			; <UNDEFINED> instruction: 0xffffffff
 800393c:	ffffffff 			; <UNDEFINED> instruction: 0xffffffff
 8003940:	ffffffff 			; <UNDEFINED> instruction: 0xffffffff
 8003944:	ffffffff 			; <UNDEFINED> instruction: 0xffffffff
 8003948:	ffffffff 			; <UNDEFINED> instruction: 0xffffffff
 800394c:	ffffffff 			; <UNDEFINED> instruction: 0xffffffff
 8003950:	ffffffff 			; <UNDEFINED> instruction: 0xffffffff
 8003954:	ffffffff 			; <UNDEFINED> instruction: 0xffffffff
 8003958:	ffffffff 			; <UNDEFINED> instruction: 0xffffffff
 800395c:	ffffffff 			; <UNDEFINED> instruction: 0xffffffff
 8003960:	ffffffff 			; <UNDEFINED> instruction: 0xffffffff
 8003964:	ffffffff 			; <UNDEFINED> instruction: 0xffffffff
 8003968:	ffffffff 			; <UNDEFINED> instruction: 0xffffffff
 800396c:	ffffffff 			; <UNDEFINED> instruction: 0xffffffff
 8003970:	ffffffff 			; <UNDEFINED> instruction: 0xffffffff
 8003974:	ffffffff 			; <UNDEFINED> instruction: 0xffffffff
 8003978:	ffffffff 			; <UNDEFINED> instruction: 0xffffffff
 800397c:	ffffffff 			; <UNDEFINED> instruction: 0xffffffff
 8003980:	ffffffff 			; <UNDEFINED> instruction: 0xffffffff
 8003984:	ffffffff 			; <UNDEFINED> instruction: 0xffffffff
 8003988:	ffffffff 			; <UNDEFINED> instruction: 0xffffffff
 800398c:	ffffffff 			; <UNDEFINED> instruction: 0xffffffff
 8003990:	ffffffff 			; <UNDEFINED> instruction: 0xffffffff
 8003994:	ffffffff 			; <UNDEFINED> instruction: 0xffffffff
 8003998:	ffffffff 			; <UNDEFINED> instruction: 0xffffffff
 800399c:	ffffffff 			; <UNDEFINED> instruction: 0xffffffff
 80039a0:	ffffffff 			; <UNDEFINED> instruction: 0xffffffff
 80039a4:	ffffffff 			; <UNDEFINED> instruction: 0xffffffff
 80039a8:	ffffffff 			; <UNDEFINED> instruction: 0xffffffff
 80039ac:	ffffffff 			; <UNDEFINED> instruction: 0xffffffff
 80039b0:	ffffffff 			; <UNDEFINED> instruction: 0xffffffff
 80039b4:	ffffffff 			; <UNDEFINED> instruction: 0xffffffff
 80039b8:	ffffffff 			; <UNDEFINED> instruction: 0xffffffff
 80039bc:	ffffffff 			; <UNDEFINED> instruction: 0xffffffff
 80039c0:	ffffffff 			; <UNDEFINED> instruction: 0xffffffff
 80039c4:	ffffffff 			; <UNDEFINED> instruction: 0xffffffff
 80039c8:	ffffffff 			; <UNDEFINED> instruction: 0xffffffff
 80039cc:	ffffffff 			; <UNDEFINED> instruction: 0xffffffff
 80039d0:	ffffffff 			; <UNDEFINED> instruction: 0xffffffff
 80039d4:	ffffffff 			; <UNDEFINED> instruction: 0xffffffff
 80039d8:	ffffffff 			; <UNDEFINED> instruction: 0xffffffff
 80039dc:	ffffffff 			; <UNDEFINED> instruction: 0xffffffff
 80039e0:	ffffffff 			; <UNDEFINED> instruction: 0xffffffff
 80039e4:	ffffffff 			; <UNDEFINED> instruction: 0xffffffff
 80039e8:	ffffffff 			; <UNDEFINED> instruction: 0xffffffff
 80039ec:	ffffffff 			; <UNDEFINED> instruction: 0xffffffff
 80039f0:	ffffffff 			; <UNDEFINED> instruction: 0xffffffff
 80039f4:	ffffffff 			; <UNDEFINED> instruction: 0xffffffff
 80039f8:	ffffffff 			; <UNDEFINED> instruction: 0xffffffff
 80039fc:	ffffffff 			; <UNDEFINED> instruction: 0xffffffff
 8003a00:	ffffffff 			; <UNDEFINED> instruction: 0xffffffff
 8003a04:	ffffffff 			; <UNDEFINED> instruction: 0xffffffff
 8003a08:	ffffffff 			; <UNDEFINED> instruction: 0xffffffff
 8003a0c:	ffffffff 			; <UNDEFINED> instruction: 0xffffffff
 8003a10:	ffffffff 			; <UNDEFINED> instruction: 0xffffffff
 8003a14:	ffffffff 			; <UNDEFINED> instruction: 0xffffffff
 8003a18:	ffffffff 			; <UNDEFINED> instruction: 0xffffffff
 8003a1c:	ffffffff 			; <UNDEFINED> instruction: 0xffffffff
 8003a20:	ffffffff 			; <UNDEFINED> instruction: 0xffffffff
 8003a24:	ffffffff 			; <UNDEFINED> instruction: 0xffffffff
 8003a28:	ffffffff 			; <UNDEFINED> instruction: 0xffffffff
 8003a2c:	ffffffff 			; <UNDEFINED> instruction: 0xffffffff
 8003a30:	ffffffff 			; <UNDEFINED> instruction: 0xffffffff
 8003a34:	ffffffff 			; <UNDEFINED> instruction: 0xffffffff
 8003a38:	ffffffff 			; <UNDEFINED> instruction: 0xffffffff
 8003a3c:	ffffffff 			; <UNDEFINED> instruction: 0xffffffff
 8003a40:	ffffffff 			; <UNDEFINED> instruction: 0xffffffff
 8003a44:	ffffffff 			; <UNDEFINED> instruction: 0xffffffff
 8003a48:	ffffffff 			; <UNDEFINED> instruction: 0xffffffff
 8003a4c:	ffffffff 			; <UNDEFINED> instruction: 0xffffffff
 8003a50:	ffffffff 			; <UNDEFINED> instruction: 0xffffffff
 8003a54:	ffffffff 			; <UNDEFINED> instruction: 0xffffffff
 8003a58:	ffffffff 			; <UNDEFINED> instruction: 0xffffffff
 8003a5c:	ffffffff 			; <UNDEFINED> instruction: 0xffffffff
 8003a60:	ffffffff 			; <UNDEFINED> instruction: 0xffffffff
 8003a64:	ffffffff 			; <UNDEFINED> instruction: 0xffffffff
 8003a68:	ffffffff 			; <UNDEFINED> instruction: 0xffffffff
 8003a6c:	ffffffff 			; <UNDEFINED> instruction: 0xffffffff
 8003a70:	ffffffff 			; <UNDEFINED> instruction: 0xffffffff
 8003a74:	ffffffff 			; <UNDEFINED> instruction: 0xffffffff
 8003a78:	ffffffff 			; <UNDEFINED> instruction: 0xffffffff
 8003a7c:	ffffffff 			; <UNDEFINED> instruction: 0xffffffff
 8003a80:	ffffffff 			; <UNDEFINED> instruction: 0xffffffff
 8003a84:	ffffffff 			; <UNDEFINED> instruction: 0xffffffff
 8003a88:	ffffffff 			; <UNDEFINED> instruction: 0xffffffff
 8003a8c:	ffffffff 			; <UNDEFINED> instruction: 0xffffffff
 8003a90:	ffffffff 			; <UNDEFINED> instruction: 0xffffffff
 8003a94:	ffffffff 			; <UNDEFINED> instruction: 0xffffffff
 8003a98:	ffffffff 			; <UNDEFINED> instruction: 0xffffffff
 8003a9c:	ffffffff 			; <UNDEFINED> instruction: 0xffffffff
 8003aa0:	ffffffff 			; <UNDEFINED> instruction: 0xffffffff
 8003aa4:	ffffffff 			; <UNDEFINED> instruction: 0xffffffff
 8003aa8:	ffffffff 			; <UNDEFINED> instruction: 0xffffffff
 8003aac:	ffffffff 			; <UNDEFINED> instruction: 0xffffffff
 8003ab0:	ffffffff 			; <UNDEFINED> instruction: 0xffffffff
 8003ab4:	ffffffff 			; <UNDEFINED> instruction: 0xffffffff
 8003ab8:	ffffffff 			; <UNDEFINED> instruction: 0xffffffff
 8003abc:	ffffffff 			; <UNDEFINED> instruction: 0xffffffff
 8003ac0:	ffffffff 			; <UNDEFINED> instruction: 0xffffffff
 8003ac4:	ffffffff 			; <UNDEFINED> instruction: 0xffffffff
 8003ac8:	ffffffff 			; <UNDEFINED> instruction: 0xffffffff
 8003acc:	ffffffff 			; <UNDEFINED> instruction: 0xffffffff
 8003ad0:	ffffffff 			; <UNDEFINED> instruction: 0xffffffff
 8003ad4:	ffffffff 			; <UNDEFINED> instruction: 0xffffffff
 8003ad8:	ffffffff 			; <UNDEFINED> instruction: 0xffffffff
 8003adc:	ffffffff 			; <UNDEFINED> instruction: 0xffffffff
 8003ae0:	ffffffff 			; <UNDEFINED> instruction: 0xffffffff
 8003ae4:	ffffffff 			; <UNDEFINED> instruction: 0xffffffff
 8003ae8:	ffffffff 			; <UNDEFINED> instruction: 0xffffffff
 8003aec:	ffffffff 			; <UNDEFINED> instruction: 0xffffffff
 8003af0:	ffffffff 			; <UNDEFINED> instruction: 0xffffffff
 8003af4:	ffffffff 			; <UNDEFINED> instruction: 0xffffffff
 8003af8:	ffffffff 			; <UNDEFINED> instruction: 0xffffffff
 8003afc:	ffffffff 			; <UNDEFINED> instruction: 0xffffffff
 8003b00:	ffffffff 			; <UNDEFINED> instruction: 0xffffffff
 8003b04:	ffffffff 			; <UNDEFINED> instruction: 0xffffffff
 8003b08:	ffffffff 			; <UNDEFINED> instruction: 0xffffffff
 8003b0c:	ffffffff 			; <UNDEFINED> instruction: 0xffffffff
 8003b10:	ffffffff 			; <UNDEFINED> instruction: 0xffffffff
 8003b14:	ffffffff 			; <UNDEFINED> instruction: 0xffffffff
 8003b18:	ffffffff 			; <UNDEFINED> instruction: 0xffffffff
 8003b1c:	ffffffff 			; <UNDEFINED> instruction: 0xffffffff
 8003b20:	ffffffff 			; <UNDEFINED> instruction: 0xffffffff
 8003b24:	ffffffff 			; <UNDEFINED> instruction: 0xffffffff
 8003b28:	ffffffff 			; <UNDEFINED> instruction: 0xffffffff
 8003b2c:	ffffffff 			; <UNDEFINED> instruction: 0xffffffff
 8003b30:	ffffffff 			; <UNDEFINED> instruction: 0xffffffff
 8003b34:	ffffffff 			; <UNDEFINED> instruction: 0xffffffff
 8003b38:	ffffffff 			; <UNDEFINED> instruction: 0xffffffff
 8003b3c:	ffffffff 			; <UNDEFINED> instruction: 0xffffffff
 8003b40:	ffffffff 			; <UNDEFINED> instruction: 0xffffffff
 8003b44:	ffffffff 			; <UNDEFINED> instruction: 0xffffffff
 8003b48:	ffffffff 			; <UNDEFINED> instruction: 0xffffffff
 8003b4c:	ffffffff 			; <UNDEFINED> instruction: 0xffffffff
 8003b50:	ffffffff 			; <UNDEFINED> instruction: 0xffffffff
 8003b54:	ffffffff 			; <UNDEFINED> instruction: 0xffffffff
 8003b58:	ffffffff 			; <UNDEFINED> instruction: 0xffffffff
 8003b5c:	ffffffff 			; <UNDEFINED> instruction: 0xffffffff
 8003b60:	ffffffff 			; <UNDEFINED> instruction: 0xffffffff
 8003b64:	ffffffff 			; <UNDEFINED> instruction: 0xffffffff
 8003b68:	ffffffff 			; <UNDEFINED> instruction: 0xffffffff
 8003b6c:	ffffffff 			; <UNDEFINED> instruction: 0xffffffff
 8003b70:	ffffffff 			; <UNDEFINED> instruction: 0xffffffff
 8003b74:	ffffffff 			; <UNDEFINED> instruction: 0xffffffff
 8003b78:	ffffffff 			; <UNDEFINED> instruction: 0xffffffff
 8003b7c:	ffffffff 			; <UNDEFINED> instruction: 0xffffffff
 8003b80:	ffffffff 			; <UNDEFINED> instruction: 0xffffffff
 8003b84:	ffffffff 			; <UNDEFINED> instruction: 0xffffffff
 8003b88:	ffffffff 			; <UNDEFINED> instruction: 0xffffffff
 8003b8c:	ffffffff 			; <UNDEFINED> instruction: 0xffffffff
 8003b90:	ffffffff 			; <UNDEFINED> instruction: 0xffffffff
 8003b94:	ffffffff 			; <UNDEFINED> instruction: 0xffffffff
 8003b98:	ffffffff 			; <UNDEFINED> instruction: 0xffffffff
 8003b9c:	ffffffff 			; <UNDEFINED> instruction: 0xffffffff
 8003ba0:	ffffffff 			; <UNDEFINED> instruction: 0xffffffff
 8003ba4:	ffffffff 			; <UNDEFINED> instruction: 0xffffffff
 8003ba8:	ffffffff 			; <UNDEFINED> instruction: 0xffffffff
 8003bac:	ffffffff 			; <UNDEFINED> instruction: 0xffffffff
 8003bb0:	ffffffff 			; <UNDEFINED> instruction: 0xffffffff
 8003bb4:	ffffffff 			; <UNDEFINED> instruction: 0xffffffff
 8003bb8:	ffffffff 			; <UNDEFINED> instruction: 0xffffffff
 8003bbc:	ffffffff 			; <UNDEFINED> instruction: 0xffffffff
 8003bc0:	ffffffff 			; <UNDEFINED> instruction: 0xffffffff
 8003bc4:	ffffffff 			; <UNDEFINED> instruction: 0xffffffff
 8003bc8:	ffffffff 			; <UNDEFINED> instruction: 0xffffffff
 8003bcc:	ffffffff 			; <UNDEFINED> instruction: 0xffffffff
 8003bd0:	ffffffff 			; <UNDEFINED> instruction: 0xffffffff
 8003bd4:	ffffffff 			; <UNDEFINED> instruction: 0xffffffff
 8003bd8:	ffffffff 			; <UNDEFINED> instruction: 0xffffffff
 8003bdc:	ffffffff 			; <UNDEFINED> instruction: 0xffffffff
 8003be0:	ffffffff 			; <UNDEFINED> instruction: 0xffffffff
 8003be4:	ffffffff 			; <UNDEFINED> instruction: 0xffffffff
 8003be8:	ffffffff 			; <UNDEFINED> instruction: 0xffffffff
 8003bec:	ffffffff 			; <UNDEFINED> instruction: 0xffffffff
 8003bf0:	ffffffff 			; <UNDEFINED> instruction: 0xffffffff
 8003bf4:	ffffffff 			; <UNDEFINED> instruction: 0xffffffff
 8003bf8:	ffffffff 			; <UNDEFINED> instruction: 0xffffffff
 8003bfc:	ffffffff 			; <UNDEFINED> instruction: 0xffffffff
 8003c00:	ffffffff 			; <UNDEFINED> instruction: 0xffffffff
 8003c04:	ffffffff 			; <UNDEFINED> instruction: 0xffffffff
 8003c08:	ffffffff 			; <UNDEFINED> instruction: 0xffffffff
 8003c0c:	ffffffff 			; <UNDEFINED> instruction: 0xffffffff
 8003c10:	ffffffff 			; <UNDEFINED> instruction: 0xffffffff
 8003c14:	ffffffff 			; <UNDEFINED> instruction: 0xffffffff
 8003c18:	ffffffff 			; <UNDEFINED> instruction: 0xffffffff
 8003c1c:	ffffffff 			; <UNDEFINED> instruction: 0xffffffff
 8003c20:	ffffffff 			; <UNDEFINED> instruction: 0xffffffff
 8003c24:	ffffffff 			; <UNDEFINED> instruction: 0xffffffff
 8003c28:	ffffffff 			; <UNDEFINED> instruction: 0xffffffff
 8003c2c:	ffffffff 			; <UNDEFINED> instruction: 0xffffffff
 8003c30:	ffffffff 			; <UNDEFINED> instruction: 0xffffffff
 8003c34:	ffffffff 			; <UNDEFINED> instruction: 0xffffffff
 8003c38:	ffffffff 			; <UNDEFINED> instruction: 0xffffffff
 8003c3c:	ffffffff 			; <UNDEFINED> instruction: 0xffffffff
 8003c40:	ffffffff 			; <UNDEFINED> instruction: 0xffffffff
 8003c44:	ffffffff 			; <UNDEFINED> instruction: 0xffffffff
 8003c48:	ffffffff 			; <UNDEFINED> instruction: 0xffffffff
 8003c4c:	ffffffff 			; <UNDEFINED> instruction: 0xffffffff
 8003c50:	ffffffff 			; <UNDEFINED> instruction: 0xffffffff
 8003c54:	ffffffff 			; <UNDEFINED> instruction: 0xffffffff
 8003c58:	ffffffff 			; <UNDEFINED> instruction: 0xffffffff
 8003c5c:	ffffffff 			; <UNDEFINED> instruction: 0xffffffff
 8003c60:	ffffffff 			; <UNDEFINED> instruction: 0xffffffff
 8003c64:	ffffffff 			; <UNDEFINED> instruction: 0xffffffff
 8003c68:	ffffffff 			; <UNDEFINED> instruction: 0xffffffff
 8003c6c:	ffffffff 			; <UNDEFINED> instruction: 0xffffffff
 8003c70:	ffffffff 			; <UNDEFINED> instruction: 0xffffffff
 8003c74:	ffffffff 			; <UNDEFINED> instruction: 0xffffffff
 8003c78:	ffffffff 			; <UNDEFINED> instruction: 0xffffffff
 8003c7c:	ffffffff 			; <UNDEFINED> instruction: 0xffffffff
 8003c80:	ffffffff 			; <UNDEFINED> instruction: 0xffffffff
 8003c84:	ffffffff 			; <UNDEFINED> instruction: 0xffffffff
 8003c88:	ffffffff 			; <UNDEFINED> instruction: 0xffffffff
 8003c8c:	ffffffff 			; <UNDEFINED> instruction: 0xffffffff
 8003c90:	ffffffff 			; <UNDEFINED> instruction: 0xffffffff
 8003c94:	ffffffff 			; <UNDEFINED> instruction: 0xffffffff
 8003c98:	ffffffff 			; <UNDEFINED> instruction: 0xffffffff
 8003c9c:	ffffffff 			; <UNDEFINED> instruction: 0xffffffff
 8003ca0:	ffffffff 			; <UNDEFINED> instruction: 0xffffffff
 8003ca4:	ffffffff 			; <UNDEFINED> instruction: 0xffffffff
 8003ca8:	ffffffff 			; <UNDEFINED> instruction: 0xffffffff
 8003cac:	ffffffff 			; <UNDEFINED> instruction: 0xffffffff
 8003cb0:	ffffffff 			; <UNDEFINED> instruction: 0xffffffff
 8003cb4:	ffffffff 			; <UNDEFINED> instruction: 0xffffffff
 8003cb8:	ffffffff 			; <UNDEFINED> instruction: 0xffffffff
 8003cbc:	ffffffff 			; <UNDEFINED> instruction: 0xffffffff
 8003cc0:	ffffffff 			; <UNDEFINED> instruction: 0xffffffff
 8003cc4:	ffffffff 			; <UNDEFINED> instruction: 0xffffffff
 8003cc8:	ffffffff 			; <UNDEFINED> instruction: 0xffffffff
 8003ccc:	ffffffff 			; <UNDEFINED> instruction: 0xffffffff
 8003cd0:	ffffffff 			; <UNDEFINED> instruction: 0xffffffff
 8003cd4:	ffffffff 			; <UNDEFINED> instruction: 0xffffffff
 8003cd8:	ffffffff 			; <UNDEFINED> instruction: 0xffffffff
 8003cdc:	ffffffff 			; <UNDEFINED> instruction: 0xffffffff
 8003ce0:	ffffffff 			; <UNDEFINED> instruction: 0xffffffff
 8003ce4:	ffffffff 			; <UNDEFINED> instruction: 0xffffffff
 8003ce8:	ffffffff 			; <UNDEFINED> instruction: 0xffffffff
 8003cec:	ffffffff 			; <UNDEFINED> instruction: 0xffffffff
 8003cf0:	ffffffff 			; <UNDEFINED> instruction: 0xffffffff
 8003cf4:	ffffffff 			; <UNDEFINED> instruction: 0xffffffff
 8003cf8:	ffffffff 			; <UNDEFINED> instruction: 0xffffffff
 8003cfc:	ffffffff 			; <UNDEFINED> instruction: 0xffffffff
 8003d00:	ffffffff 			; <UNDEFINED> instruction: 0xffffffff
 8003d04:	ffffffff 			; <UNDEFINED> instruction: 0xffffffff
 8003d08:	ffffffff 			; <UNDEFINED> instruction: 0xffffffff
 8003d0c:	ffffffff 			; <UNDEFINED> instruction: 0xffffffff
 8003d10:	ffffffff 			; <UNDEFINED> instruction: 0xffffffff
 8003d14:	ffffffff 			; <UNDEFINED> instruction: 0xffffffff
 8003d18:	ffffffff 			; <UNDEFINED> instruction: 0xffffffff
 8003d1c:	ffffffff 			; <UNDEFINED> instruction: 0xffffffff
 8003d20:	ffffffff 			; <UNDEFINED> instruction: 0xffffffff
 8003d24:	ffffffff 			; <UNDEFINED> instruction: 0xffffffff
 8003d28:	ffffffff 			; <UNDEFINED> instruction: 0xffffffff
 8003d2c:	ffffffff 			; <UNDEFINED> instruction: 0xffffffff
 8003d30:	ffffffff 			; <UNDEFINED> instruction: 0xffffffff
 8003d34:	ffffffff 			; <UNDEFINED> instruction: 0xffffffff
 8003d38:	ffffffff 			; <UNDEFINED> instruction: 0xffffffff
 8003d3c:	ffffffff 			; <UNDEFINED> instruction: 0xffffffff
 8003d40:	ffffffff 			; <UNDEFINED> instruction: 0xffffffff
 8003d44:	ffffffff 			; <UNDEFINED> instruction: 0xffffffff
 8003d48:	ffffffff 			; <UNDEFINED> instruction: 0xffffffff
 8003d4c:	ffffffff 			; <UNDEFINED> instruction: 0xffffffff
 8003d50:	ffffffff 			; <UNDEFINED> instruction: 0xffffffff
 8003d54:	ffffffff 			; <UNDEFINED> instruction: 0xffffffff
 8003d58:	ffffffff 			; <UNDEFINED> instruction: 0xffffffff
 8003d5c:	ffffffff 			; <UNDEFINED> instruction: 0xffffffff
 8003d60:	ffffffff 			; <UNDEFINED> instruction: 0xffffffff
 8003d64:	ffffffff 			; <UNDEFINED> instruction: 0xffffffff
 8003d68:	ffffffff 			; <UNDEFINED> instruction: 0xffffffff
 8003d6c:	ffffffff 			; <UNDEFINED> instruction: 0xffffffff
 8003d70:	ffffffff 			; <UNDEFINED> instruction: 0xffffffff
 8003d74:	ffffffff 			; <UNDEFINED> instruction: 0xffffffff
 8003d78:	ffffffff 			; <UNDEFINED> instruction: 0xffffffff
 8003d7c:	ffffffff 			; <UNDEFINED> instruction: 0xffffffff
 8003d80:	ffffffff 			; <UNDEFINED> instruction: 0xffffffff
 8003d84:	ffffffff 			; <UNDEFINED> instruction: 0xffffffff
 8003d88:	ffffffff 			; <UNDEFINED> instruction: 0xffffffff
 8003d8c:	ffffffff 			; <UNDEFINED> instruction: 0xffffffff
 8003d90:	ffffffff 			; <UNDEFINED> instruction: 0xffffffff
 8003d94:	ffffffff 			; <UNDEFINED> instruction: 0xffffffff
 8003d98:	ffffffff 			; <UNDEFINED> instruction: 0xffffffff
 8003d9c:	ffffffff 			; <UNDEFINED> instruction: 0xffffffff
 8003da0:	ffffffff 			; <UNDEFINED> instruction: 0xffffffff
 8003da4:	ffffffff 			; <UNDEFINED> instruction: 0xffffffff
 8003da8:	ffffffff 			; <UNDEFINED> instruction: 0xffffffff
 8003dac:	ffffffff 			; <UNDEFINED> instruction: 0xffffffff
 8003db0:	ffffffff 			; <UNDEFINED> instruction: 0xffffffff
 8003db4:	ffffffff 			; <UNDEFINED> instruction: 0xffffffff
 8003db8:	ffffffff 			; <UNDEFINED> instruction: 0xffffffff
 8003dbc:	ffffffff 			; <UNDEFINED> instruction: 0xffffffff
 8003dc0:	ffffffff 			; <UNDEFINED> instruction: 0xffffffff
 8003dc4:	ffffffff 			; <UNDEFINED> instruction: 0xffffffff
 8003dc8:	ffffffff 			; <UNDEFINED> instruction: 0xffffffff
 8003dcc:	ffffffff 			; <UNDEFINED> instruction: 0xffffffff
 8003dd0:	ffffffff 			; <UNDEFINED> instruction: 0xffffffff
 8003dd4:	ffffffff 			; <UNDEFINED> instruction: 0xffffffff
 8003dd8:	ffffffff 			; <UNDEFINED> instruction: 0xffffffff
 8003ddc:	ffffffff 			; <UNDEFINED> instruction: 0xffffffff
 8003de0:	ffffffff 			; <UNDEFINED> instruction: 0xffffffff
 8003de4:	ffffffff 			; <UNDEFINED> instruction: 0xffffffff
 8003de8:	ffffffff 			; <UNDEFINED> instruction: 0xffffffff
 8003dec:	ffffffff 			; <UNDEFINED> instruction: 0xffffffff
 8003df0:	ffffffff 			; <UNDEFINED> instruction: 0xffffffff
 8003df4:	ffffffff 			; <UNDEFINED> instruction: 0xffffffff
 8003df8:	ffffffff 			; <UNDEFINED> instruction: 0xffffffff
 8003dfc:	ffffffff 			; <UNDEFINED> instruction: 0xffffffff
 8003e00:	ffffffff 			; <UNDEFINED> instruction: 0xffffffff
 8003e04:	ffffffff 			; <UNDEFINED> instruction: 0xffffffff
 8003e08:	ffffffff 			; <UNDEFINED> instruction: 0xffffffff
 8003e0c:	ffffffff 			; <UNDEFINED> instruction: 0xffffffff
 8003e10:	ffffffff 			; <UNDEFINED> instruction: 0xffffffff
 8003e14:	ffffffff 			; <UNDEFINED> instruction: 0xffffffff
 8003e18:	ffffffff 			; <UNDEFINED> instruction: 0xffffffff
 8003e1c:	ffffffff 			; <UNDEFINED> instruction: 0xffffffff
 8003e20:	ffffffff 			; <UNDEFINED> instruction: 0xffffffff
 8003e24:	ffffffff 			; <UNDEFINED> instruction: 0xffffffff
 8003e28:	ffffffff 			; <UNDEFINED> instruction: 0xffffffff
 8003e2c:	ffffffff 			; <UNDEFINED> instruction: 0xffffffff
 8003e30:	ffffffff 			; <UNDEFINED> instruction: 0xffffffff
 8003e34:	ffffffff 			; <UNDEFINED> instruction: 0xffffffff
 8003e38:	ffffffff 			; <UNDEFINED> instruction: 0xffffffff
 8003e3c:	ffffffff 			; <UNDEFINED> instruction: 0xffffffff
 8003e40:	ffffffff 			; <UNDEFINED> instruction: 0xffffffff
 8003e44:	ffffffff 			; <UNDEFINED> instruction: 0xffffffff
 8003e48:	ffffffff 			; <UNDEFINED> instruction: 0xffffffff
 8003e4c:	ffffffff 			; <UNDEFINED> instruction: 0xffffffff
 8003e50:	ffffffff 			; <UNDEFINED> instruction: 0xffffffff
 8003e54:	ffffffff 			; <UNDEFINED> instruction: 0xffffffff
 8003e58:	ffffffff 			; <UNDEFINED> instruction: 0xffffffff
 8003e5c:	ffffffff 			; <UNDEFINED> instruction: 0xffffffff
 8003e60:	ffffffff 			; <UNDEFINED> instruction: 0xffffffff
 8003e64:	ffffffff 			; <UNDEFINED> instruction: 0xffffffff
 8003e68:	ffffffff 			; <UNDEFINED> instruction: 0xffffffff
 8003e6c:	ffffffff 			; <UNDEFINED> instruction: 0xffffffff
 8003e70:	ffffffff 			; <UNDEFINED> instruction: 0xffffffff
 8003e74:	ffffffff 			; <UNDEFINED> instruction: 0xffffffff
 8003e78:	ffffffff 			; <UNDEFINED> instruction: 0xffffffff
 8003e7c:	ffffffff 			; <UNDEFINED> instruction: 0xffffffff
 8003e80:	ffffffff 			; <UNDEFINED> instruction: 0xffffffff
 8003e84:	ffffffff 			; <UNDEFINED> instruction: 0xffffffff
 8003e88:	ffffffff 			; <UNDEFINED> instruction: 0xffffffff
 8003e8c:	ffffffff 			; <UNDEFINED> instruction: 0xffffffff
 8003e90:	ffffffff 			; <UNDEFINED> instruction: 0xffffffff
 8003e94:	ffffffff 			; <UNDEFINED> instruction: 0xffffffff
 8003e98:	ffffffff 			; <UNDEFINED> instruction: 0xffffffff
 8003e9c:	ffffffff 			; <UNDEFINED> instruction: 0xffffffff
 8003ea0:	ffffffff 			; <UNDEFINED> instruction: 0xffffffff
 8003ea4:	ffffffff 			; <UNDEFINED> instruction: 0xffffffff
 8003ea8:	ffffffff 			; <UNDEFINED> instruction: 0xffffffff
 8003eac:	ffffffff 			; <UNDEFINED> instruction: 0xffffffff
 8003eb0:	ffffffff 			; <UNDEFINED> instruction: 0xffffffff
 8003eb4:	ffffffff 			; <UNDEFINED> instruction: 0xffffffff
 8003eb8:	ffffffff 			; <UNDEFINED> instruction: 0xffffffff
 8003ebc:	ffffffff 			; <UNDEFINED> instruction: 0xffffffff
 8003ec0:	ffffffff 			; <UNDEFINED> instruction: 0xffffffff
 8003ec4:	ffffffff 			; <UNDEFINED> instruction: 0xffffffff
 8003ec8:	ffffffff 			; <UNDEFINED> instruction: 0xffffffff
 8003ecc:	ffffffff 			; <UNDEFINED> instruction: 0xffffffff
 8003ed0:	ffffffff 			; <UNDEFINED> instruction: 0xffffffff
 8003ed4:	ffffffff 			; <UNDEFINED> instruction: 0xffffffff
 8003ed8:	ffffffff 			; <UNDEFINED> instruction: 0xffffffff
 8003edc:	ffffffff 			; <UNDEFINED> instruction: 0xffffffff
 8003ee0:	ffffffff 			; <UNDEFINED> instruction: 0xffffffff
 8003ee4:	ffffffff 			; <UNDEFINED> instruction: 0xffffffff
 8003ee8:	ffffffff 			; <UNDEFINED> instruction: 0xffffffff
 8003eec:	ffffffff 			; <UNDEFINED> instruction: 0xffffffff
 8003ef0:	ffffffff 			; <UNDEFINED> instruction: 0xffffffff
 8003ef4:	ffffffff 			; <UNDEFINED> instruction: 0xffffffff
 8003ef8:	ffffffff 			; <UNDEFINED> instruction: 0xffffffff
 8003efc:	ffffffff 			; <UNDEFINED> instruction: 0xffffffff
 8003f00:	ffffffff 			; <UNDEFINED> instruction: 0xffffffff
 8003f04:	ffffffff 			; <UNDEFINED> instruction: 0xffffffff
 8003f08:	ffffffff 			; <UNDEFINED> instruction: 0xffffffff
 8003f0c:	ffffffff 			; <UNDEFINED> instruction: 0xffffffff
 8003f10:	ffffffff 			; <UNDEFINED> instruction: 0xffffffff
 8003f14:	ffffffff 			; <UNDEFINED> instruction: 0xffffffff
 8003f18:	ffffffff 			; <UNDEFINED> instruction: 0xffffffff
 8003f1c:	ffffffff 			; <UNDEFINED> instruction: 0xffffffff
 8003f20:	ffffffff 			; <UNDEFINED> instruction: 0xffffffff
 8003f24:	ffffffff 			; <UNDEFINED> instruction: 0xffffffff
 8003f28:	ffffffff 			; <UNDEFINED> instruction: 0xffffffff
 8003f2c:	ffffffff 			; <UNDEFINED> instruction: 0xffffffff
 8003f30:	ffffffff 			; <UNDEFINED> instruction: 0xffffffff
 8003f34:	ffffffff 			; <UNDEFINED> instruction: 0xffffffff
 8003f38:	ffffffff 			; <UNDEFINED> instruction: 0xffffffff
 8003f3c:	ffffffff 			; <UNDEFINED> instruction: 0xffffffff
 8003f40:	ffffffff 			; <UNDEFINED> instruction: 0xffffffff
 8003f44:	ffffffff 			; <UNDEFINED> instruction: 0xffffffff
 8003f48:	ffffffff 			; <UNDEFINED> instruction: 0xffffffff
 8003f4c:	ffffffff 			; <UNDEFINED> instruction: 0xffffffff
 8003f50:	ffffffff 			; <UNDEFINED> instruction: 0xffffffff
 8003f54:	ffffffff 			; <UNDEFINED> instruction: 0xffffffff
 8003f58:	ffffffff 			; <UNDEFINED> instruction: 0xffffffff
 8003f5c:	ffffffff 			; <UNDEFINED> instruction: 0xffffffff
 8003f60:	ffffffff 			; <UNDEFINED> instruction: 0xffffffff
 8003f64:	ffffffff 			; <UNDEFINED> instruction: 0xffffffff
 8003f68:	ffffffff 			; <UNDEFINED> instruction: 0xffffffff
 8003f6c:	ffffffff 			; <UNDEFINED> instruction: 0xffffffff
 8003f70:	ffffffff 			; <UNDEFINED> instruction: 0xffffffff
 8003f74:	ffffffff 			; <UNDEFINED> instruction: 0xffffffff
 8003f78:	ffffffff 			; <UNDEFINED> instruction: 0xffffffff
 8003f7c:	ffffffff 			; <UNDEFINED> instruction: 0xffffffff
 8003f80:	ffffffff 			; <UNDEFINED> instruction: 0xffffffff
 8003f84:	ffffffff 			; <UNDEFINED> instruction: 0xffffffff
 8003f88:	ffffffff 			; <UNDEFINED> instruction: 0xffffffff
 8003f8c:	ffffffff 			; <UNDEFINED> instruction: 0xffffffff
 8003f90:	ffffffff 			; <UNDEFINED> instruction: 0xffffffff
 8003f94:	ffffffff 			; <UNDEFINED> instruction: 0xffffffff
 8003f98:	ffffffff 			; <UNDEFINED> instruction: 0xffffffff
 8003f9c:	ffffffff 			; <UNDEFINED> instruction: 0xffffffff
 8003fa0:	ffffffff 			; <UNDEFINED> instruction: 0xffffffff
 8003fa4:	ffffffff 			; <UNDEFINED> instruction: 0xffffffff
 8003fa8:	ffffffff 			; <UNDEFINED> instruction: 0xffffffff
 8003fac:	ffffffff 			; <UNDEFINED> instruction: 0xffffffff
 8003fb0:	ffffffff 			; <UNDEFINED> instruction: 0xffffffff
 8003fb4:	ffffffff 			; <UNDEFINED> instruction: 0xffffffff
 8003fb8:	ffffffff 			; <UNDEFINED> instruction: 0xffffffff
 8003fbc:	ffffffff 			; <UNDEFINED> instruction: 0xffffffff
 8003fc0:	ffffffff 			; <UNDEFINED> instruction: 0xffffffff
 8003fc4:	ffffffff 			; <UNDEFINED> instruction: 0xffffffff
 8003fc8:	ffffffff 			; <UNDEFINED> instruction: 0xffffffff
 8003fcc:	ffffffff 			; <UNDEFINED> instruction: 0xffffffff
 8003fd0:	ffffffff 			; <UNDEFINED> instruction: 0xffffffff
 8003fd4:	ffffffff 			; <UNDEFINED> instruction: 0xffffffff
 8003fd8:	ffffffff 			; <UNDEFINED> instruction: 0xffffffff
 8003fdc:	ffffffff 			; <UNDEFINED> instruction: 0xffffffff
 8003fe0:	ffffffff 			; <UNDEFINED> instruction: 0xffffffff
 8003fe4:	ffffffff 			; <UNDEFINED> instruction: 0xffffffff
 8003fe8:	ffffffff 			; <UNDEFINED> instruction: 0xffffffff
 8003fec:	ffffffff 			; <UNDEFINED> instruction: 0xffffffff
 8003ff0:	ffffffff 			; <UNDEFINED> instruction: 0xffffffff
 8003ff4:	ffffffff 			; <UNDEFINED> instruction: 0xffffffff
 8003ff8:	ffffffff 			; <UNDEFINED> instruction: 0xffffffff
 8003ffc:	ffffffff 			; <UNDEFINED> instruction: 0xffffffff
 8004000:	ffffffff 			; <UNDEFINED> instruction: 0xffffffff
 8004004:	ffffffff 			; <UNDEFINED> instruction: 0xffffffff
 8004008:	ffffffff 			; <UNDEFINED> instruction: 0xffffffff
 800400c:	ffffffff 			; <UNDEFINED> instruction: 0xffffffff
 8004010:	ffffffff 			; <UNDEFINED> instruction: 0xffffffff
 8004014:	ffffffff 			; <UNDEFINED> instruction: 0xffffffff
 8004018:	ffffffff 			; <UNDEFINED> instruction: 0xffffffff
 800401c:	ffffffff 			; <UNDEFINED> instruction: 0xffffffff
 8004020:	ffffffff 			; <UNDEFINED> instruction: 0xffffffff
 8004024:	ffffffff 			; <UNDEFINED> instruction: 0xffffffff
 8004028:	ffffffff 			; <UNDEFINED> instruction: 0xffffffff
 800402c:	ffffffff 			; <UNDEFINED> instruction: 0xffffffff
 8004030:	ffffffff 			; <UNDEFINED> instruction: 0xffffffff
 8004034:	ffffffff 			; <UNDEFINED> instruction: 0xffffffff
 8004038:	ffffffff 			; <UNDEFINED> instruction: 0xffffffff
 800403c:	ffffffff 			; <UNDEFINED> instruction: 0xffffffff
 8004040:	ffffffff 			; <UNDEFINED> instruction: 0xffffffff
 8004044:	ffffffff 			; <UNDEFINED> instruction: 0xffffffff
 8004048:	ffffffff 			; <UNDEFINED> instruction: 0xffffffff
 800404c:	ffffffff 			; <UNDEFINED> instruction: 0xffffffff
 8004050:	ffffffff 			; <UNDEFINED> instruction: 0xffffffff
 8004054:	ffffffff 			; <UNDEFINED> instruction: 0xffffffff
 8004058:	ffffffff 			; <UNDEFINED> instruction: 0xffffffff
 800405c:	ffffffff 			; <UNDEFINED> instruction: 0xffffffff
 8004060:	ffffffff 			; <UNDEFINED> instruction: 0xffffffff
 8004064:	ffffffff 			; <UNDEFINED> instruction: 0xffffffff
 8004068:	ffffffff 			; <UNDEFINED> instruction: 0xffffffff
 800406c:	ffffffff 			; <UNDEFINED> instruction: 0xffffffff
 8004070:	ffffffff 			; <UNDEFINED> instruction: 0xffffffff
 8004074:	ffffffff 			; <UNDEFINED> instruction: 0xffffffff
 8004078:	ffffffff 			; <UNDEFINED> instruction: 0xffffffff
 800407c:	ffffffff 			; <UNDEFINED> instruction: 0xffffffff
 8004080:	ffffffff 			; <UNDEFINED> instruction: 0xffffffff
 8004084:	ffffffff 			; <UNDEFINED> instruction: 0xffffffff
 8004088:	ffffffff 			; <UNDEFINED> instruction: 0xffffffff
 800408c:	ffffffff 			; <UNDEFINED> instruction: 0xffffffff
 8004090:	ffffffff 			; <UNDEFINED> instruction: 0xffffffff
 8004094:	ffffffff 			; <UNDEFINED> instruction: 0xffffffff
 8004098:	ffffffff 			; <UNDEFINED> instruction: 0xffffffff
 800409c:	ffffffff 			; <UNDEFINED> instruction: 0xffffffff
 80040a0:	ffffffff 			; <UNDEFINED> instruction: 0xffffffff
 80040a4:	ffffffff 			; <UNDEFINED> instruction: 0xffffffff
 80040a8:	ffffffff 			; <UNDEFINED> instruction: 0xffffffff
 80040ac:	ffffffff 			; <UNDEFINED> instruction: 0xffffffff
 80040b0:	ffffffff 			; <UNDEFINED> instruction: 0xffffffff
 80040b4:	ffffffff 			; <UNDEFINED> instruction: 0xffffffff
 80040b8:	ffffffff 			; <UNDEFINED> instruction: 0xffffffff
 80040bc:	ffffffff 			; <UNDEFINED> instruction: 0xffffffff
 80040c0:	ffffffff 			; <UNDEFINED> instruction: 0xffffffff
 80040c4:	ffffffff 			; <UNDEFINED> instruction: 0xffffffff
 80040c8:	ffffffff 			; <UNDEFINED> instruction: 0xffffffff
 80040cc:	ffffffff 			; <UNDEFINED> instruction: 0xffffffff
 80040d0:	ffffffff 			; <UNDEFINED> instruction: 0xffffffff
 80040d4:	ffffffff 			; <UNDEFINED> instruction: 0xffffffff
 80040d8:	ffffffff 			; <UNDEFINED> instruction: 0xffffffff
 80040dc:	ffffffff 			; <UNDEFINED> instruction: 0xffffffff
 80040e0:	ffffffff 			; <UNDEFINED> instruction: 0xffffffff
 80040e4:	ffffffff 			; <UNDEFINED> instruction: 0xffffffff
 80040e8:	ffffffff 			; <UNDEFINED> instruction: 0xffffffff
 80040ec:	ffffffff 			; <UNDEFINED> instruction: 0xffffffff
 80040f0:	ffffffff 			; <UNDEFINED> instruction: 0xffffffff
 80040f4:	ffffffff 			; <UNDEFINED> instruction: 0xffffffff
 80040f8:	ffffffff 			; <UNDEFINED> instruction: 0xffffffff
 80040fc:	ffffffff 			; <UNDEFINED> instruction: 0xffffffff
 8004100:	ffffffff 			; <UNDEFINED> instruction: 0xffffffff
 8004104:	ffffffff 			; <UNDEFINED> instruction: 0xffffffff
 8004108:	ffffffff 			; <UNDEFINED> instruction: 0xffffffff
 800410c:	ffffffff 			; <UNDEFINED> instruction: 0xffffffff
 8004110:	ffffffff 			; <UNDEFINED> instruction: 0xffffffff
 8004114:	ffffffff 			; <UNDEFINED> instruction: 0xffffffff
 8004118:	ffffffff 			; <UNDEFINED> instruction: 0xffffffff
 800411c:	ffffffff 			; <UNDEFINED> instruction: 0xffffffff
 8004120:	ffffffff 			; <UNDEFINED> instruction: 0xffffffff
 8004124:	ffffffff 			; <UNDEFINED> instruction: 0xffffffff
 8004128:	ffffffff 			; <UNDEFINED> instruction: 0xffffffff
 800412c:	ffffffff 			; <UNDEFINED> instruction: 0xffffffff
 8004130:	ffffffff 			; <UNDEFINED> instruction: 0xffffffff
 8004134:	ffffffff 			; <UNDEFINED> instruction: 0xffffffff
 8004138:	ffffffff 			; <UNDEFINED> instruction: 0xffffffff
 800413c:	ffffffff 			; <UNDEFINED> instruction: 0xffffffff
 8004140:	ffffffff 			; <UNDEFINED> instruction: 0xffffffff
 8004144:	ffffffff 			; <UNDEFINED> instruction: 0xffffffff
 8004148:	ffffffff 			; <UNDEFINED> instruction: 0xffffffff
 800414c:	ffffffff 			; <UNDEFINED> instruction: 0xffffffff
