
bootloader.elf:     file format elf32-littlearm


Disassembly of section .text:

08000000 <vector_table>:
 8000000:	20080000 	andcs	r0, r8, r0
 8000004:	080001f5 	stmdaeq	r0, {r0, r2, r4, r5, r6, r7, r8}
 8000008:	080001f3 	stmdaeq	r0, {r0, r1, r4, r5, r6, r7, r8}
 800000c:	080001f1 	stmdaeq	r0, {r0, r4, r5, r6, r7, r8}
 8000010:	080001f1 	stmdaeq	r0, {r0, r4, r5, r6, r7, r8}
 8000014:	080001f1 	stmdaeq	r0, {r0, r4, r5, r6, r7, r8}
 8000018:	080001f1 	stmdaeq	r0, {r0, r4, r5, r6, r7, r8}
	...
 800002c:	080001f3 	stmdaeq	r0, {r0, r1, r4, r5, r6, r7, r8}
 8000030:	080001f3 	stmdaeq	r0, {r0, r1, r4, r5, r6, r7, r8}
 8000034:	00000000 	andeq	r0, r0, r0
 8000038:	080001f3 	stmdaeq	r0, {r0, r1, r4, r5, r6, r7, r8}
 800003c:	080001f3 	stmdaeq	r0, {r0, r1, r4, r5, r6, r7, r8}
 8000040:	080001f1 	stmdaeq	r0, {r0, r4, r5, r6, r7, r8}
 8000044:	080001f1 	stmdaeq	r0, {r0, r4, r5, r6, r7, r8}
 8000048:	080001f1 	stmdaeq	r0, {r0, r4, r5, r6, r7, r8}
 800004c:	080001f1 	stmdaeq	r0, {r0, r4, r5, r6, r7, r8}
 8000050:	080001f1 	stmdaeq	r0, {r0, r4, r5, r6, r7, r8}
 8000054:	080001f1 	stmdaeq	r0, {r0, r4, r5, r6, r7, r8}
 8000058:	080001f1 	stmdaeq	r0, {r0, r4, r5, r6, r7, r8}
 800005c:	080001f1 	stmdaeq	r0, {r0, r4, r5, r6, r7, r8}
 8000060:	080001f1 	stmdaeq	r0, {r0, r4, r5, r6, r7, r8}
 8000064:	080001f1 	stmdaeq	r0, {r0, r4, r5, r6, r7, r8}
 8000068:	080001f1 	stmdaeq	r0, {r0, r4, r5, r6, r7, r8}
 800006c:	080001f1 	stmdaeq	r0, {r0, r4, r5, r6, r7, r8}
 8000070:	080001f1 	stmdaeq	r0, {r0, r4, r5, r6, r7, r8}
 8000074:	080001f1 	stmdaeq	r0, {r0, r4, r5, r6, r7, r8}
 8000078:	080001f1 	stmdaeq	r0, {r0, r4, r5, r6, r7, r8}
 800007c:	080001f1 	stmdaeq	r0, {r0, r4, r5, r6, r7, r8}
 8000080:	080001f1 	stmdaeq	r0, {r0, r4, r5, r6, r7, r8}
 8000084:	080001f1 	stmdaeq	r0, {r0, r4, r5, r6, r7, r8}
 8000088:	080001f1 	stmdaeq	r0, {r0, r4, r5, r6, r7, r8}
 800008c:	080001f1 	stmdaeq	r0, {r0, r4, r5, r6, r7, r8}
 8000090:	080001f1 	stmdaeq	r0, {r0, r4, r5, r6, r7, r8}
 8000094:	080001f1 	stmdaeq	r0, {r0, r4, r5, r6, r7, r8}
 8000098:	080001f1 	stmdaeq	r0, {r0, r4, r5, r6, r7, r8}
 800009c:	080001f1 	stmdaeq	r0, {r0, r4, r5, r6, r7, r8}
 80000a0:	080001f1 	stmdaeq	r0, {r0, r4, r5, r6, r7, r8}
 80000a4:	080001f1 	stmdaeq	r0, {r0, r4, r5, r6, r7, r8}
 80000a8:	080001f1 	stmdaeq	r0, {r0, r4, r5, r6, r7, r8}
 80000ac:	080001f1 	stmdaeq	r0, {r0, r4, r5, r6, r7, r8}
 80000b0:	080001f1 	stmdaeq	r0, {r0, r4, r5, r6, r7, r8}
 80000b4:	080001f1 	stmdaeq	r0, {r0, r4, r5, r6, r7, r8}
 80000b8:	080001f1 	stmdaeq	r0, {r0, r4, r5, r6, r7, r8}
 80000bc:	080001f1 	stmdaeq	r0, {r0, r4, r5, r6, r7, r8}
 80000c0:	080001f1 	stmdaeq	r0, {r0, r4, r5, r6, r7, r8}
 80000c4:	080001f1 	stmdaeq	r0, {r0, r4, r5, r6, r7, r8}
 80000c8:	080001f1 	stmdaeq	r0, {r0, r4, r5, r6, r7, r8}
 80000cc:	080001f1 	stmdaeq	r0, {r0, r4, r5, r6, r7, r8}
 80000d0:	080001f1 	stmdaeq	r0, {r0, r4, r5, r6, r7, r8}
 80000d4:	080001f1 	stmdaeq	r0, {r0, r4, r5, r6, r7, r8}
 80000d8:	080001f1 	stmdaeq	r0, {r0, r4, r5, r6, r7, r8}
 80000dc:	080001f1 	stmdaeq	r0, {r0, r4, r5, r6, r7, r8}
 80000e0:	080001f1 	stmdaeq	r0, {r0, r4, r5, r6, r7, r8}
 80000e4:	080001f1 	stmdaeq	r0, {r0, r4, r5, r6, r7, r8}
 80000e8:	080001f1 	stmdaeq	r0, {r0, r4, r5, r6, r7, r8}
 80000ec:	080001f1 	stmdaeq	r0, {r0, r4, r5, r6, r7, r8}
 80000f0:	080001f1 	stmdaeq	r0, {r0, r4, r5, r6, r7, r8}
 80000f4:	080001f1 	stmdaeq	r0, {r0, r4, r5, r6, r7, r8}
 80000f8:	080001f1 	stmdaeq	r0, {r0, r4, r5, r6, r7, r8}
 80000fc:	080001f1 	stmdaeq	r0, {r0, r4, r5, r6, r7, r8}
 8000100:	080001f1 	stmdaeq	r0, {r0, r4, r5, r6, r7, r8}
 8000104:	080001f1 	stmdaeq	r0, {r0, r4, r5, r6, r7, r8}
 8000108:	080001f1 	stmdaeq	r0, {r0, r4, r5, r6, r7, r8}
 800010c:	080001f1 	stmdaeq	r0, {r0, r4, r5, r6, r7, r8}
 8000110:	080001f1 	stmdaeq	r0, {r0, r4, r5, r6, r7, r8}
 8000114:	080001f1 	stmdaeq	r0, {r0, r4, r5, r6, r7, r8}
 8000118:	080001f1 	stmdaeq	r0, {r0, r4, r5, r6, r7, r8}
 800011c:	080001f1 	stmdaeq	r0, {r0, r4, r5, r6, r7, r8}
 8000120:	080001f1 	stmdaeq	r0, {r0, r4, r5, r6, r7, r8}
 8000124:	080001f1 	stmdaeq	r0, {r0, r4, r5, r6, r7, r8}
 8000128:	080001f1 	stmdaeq	r0, {r0, r4, r5, r6, r7, r8}
 800012c:	080001f1 	stmdaeq	r0, {r0, r4, r5, r6, r7, r8}
 8000130:	080001f1 	stmdaeq	r0, {r0, r4, r5, r6, r7, r8}
 8000134:	080001f1 	stmdaeq	r0, {r0, r4, r5, r6, r7, r8}
 8000138:	080001f1 	stmdaeq	r0, {r0, r4, r5, r6, r7, r8}
 800013c:	080001f1 	stmdaeq	r0, {r0, r4, r5, r6, r7, r8}
 8000140:	080001f1 	stmdaeq	r0, {r0, r4, r5, r6, r7, r8}
 8000144:	080001f1 	stmdaeq	r0, {r0, r4, r5, r6, r7, r8}
 8000148:	080001f1 	stmdaeq	r0, {r0, r4, r5, r6, r7, r8}
 800014c:	080001f1 	stmdaeq	r0, {r0, r4, r5, r6, r7, r8}
 8000150:	080001f1 	stmdaeq	r0, {r0, r4, r5, r6, r7, r8}
 8000154:	080001f1 	stmdaeq	r0, {r0, r4, r5, r6, r7, r8}
 8000158:	080001f1 	stmdaeq	r0, {r0, r4, r5, r6, r7, r8}
 800015c:	080001f1 	stmdaeq	r0, {r0, r4, r5, r6, r7, r8}
 8000160:	080001f1 	stmdaeq	r0, {r0, r4, r5, r6, r7, r8}
 8000164:	080001f1 	stmdaeq	r0, {r0, r4, r5, r6, r7, r8}
 8000168:	080001f1 	stmdaeq	r0, {r0, r4, r5, r6, r7, r8}
 800016c:	080001f1 	stmdaeq	r0, {r0, r4, r5, r6, r7, r8}
 8000170:	080001f1 	stmdaeq	r0, {r0, r4, r5, r6, r7, r8}
 8000174:	080001f1 	stmdaeq	r0, {r0, r4, r5, r6, r7, r8}
 8000178:	080001f1 	stmdaeq	r0, {r0, r4, r5, r6, r7, r8}
 800017c:	080001f1 	stmdaeq	r0, {r0, r4, r5, r6, r7, r8}
 8000180:	080001f1 	stmdaeq	r0, {r0, r4, r5, r6, r7, r8}
 8000184:	080001f1 	stmdaeq	r0, {r0, r4, r5, r6, r7, r8}
 8000188:	080001f1 	stmdaeq	r0, {r0, r4, r5, r6, r7, r8}
 800018c:	080001f1 	stmdaeq	r0, {r0, r4, r5, r6, r7, r8}
 8000190:	080001f1 	stmdaeq	r0, {r0, r4, r5, r6, r7, r8}
 8000194:	080001f1 	stmdaeq	r0, {r0, r4, r5, r6, r7, r8}
 8000198:	080001f1 	stmdaeq	r0, {r0, r4, r5, r6, r7, r8}
 800019c:	080001f1 	stmdaeq	r0, {r0, r4, r5, r6, r7, r8}
 80001a0:	080001f1 	stmdaeq	r0, {r0, r4, r5, r6, r7, r8}
 80001a4:	080001f1 	stmdaeq	r0, {r0, r4, r5, r6, r7, r8}
 80001a8:	080001f1 	stmdaeq	r0, {r0, r4, r5, r6, r7, r8}
 80001ac:	080001f1 	stmdaeq	r0, {r0, r4, r5, r6, r7, r8}
 80001b0:	080001f1 	stmdaeq	r0, {r0, r4, r5, r6, r7, r8}
 80001b4:	080001f1 	stmdaeq	r0, {r0, r4, r5, r6, r7, r8}
 80001b8:	080001f1 	stmdaeq	r0, {r0, r4, r5, r6, r7, r8}
 80001bc:	080001f1 	stmdaeq	r0, {r0, r4, r5, r6, r7, r8}
 80001c0:	080001f1 	stmdaeq	r0, {r0, r4, r5, r6, r7, r8}
 80001c4:	080001f1 	stmdaeq	r0, {r0, r4, r5, r6, r7, r8}
 80001c8:	080001f1 	stmdaeq	r0, {r0, r4, r5, r6, r7, r8}
 80001cc:	080001f1 	stmdaeq	r0, {r0, r4, r5, r6, r7, r8}
 80001d0:	080001f1 	stmdaeq	r0, {r0, r4, r5, r6, r7, r8}
 80001d4:	080001f1 	stmdaeq	r0, {r0, r4, r5, r6, r7, r8}
 80001d8:	080001f1 	stmdaeq	r0, {r0, r4, r5, r6, r7, r8}
 80001dc:	080001f1 	stmdaeq	r0, {r0, r4, r5, r6, r7, r8}

080001e0 <main>:
 80001e0:	b508      	push	{r3, lr}
 80001e2:	4b02      	ldr	r3, [pc, #8]	; (80001ec <main+0xc>)
 80001e4:	685b      	ldr	r3, [r3, #4]
 80001e6:	4798      	blx	r3
 80001e8:	2000      	movs	r0, #0
 80001ea:	bd08      	pop	{r3, pc}
 80001ec:	08008000 	stmdaeq	r0, {pc}

080001f0 <blocking_handler>:
 80001f0:	e7fe      	b.n	80001f0 <blocking_handler>

080001f2 <null_handler>:
 80001f2:	4770      	bx	lr

080001f4 <reset_handler>:
 80001f4:	b538      	push	{r3, r4, r5, lr}
 80001f6:	4a1d      	ldr	r2, [pc, #116]	; (800026c <reset_handler+0x78>)
 80001f8:	4b1d      	ldr	r3, [pc, #116]	; (8000270 <reset_handler+0x7c>)
 80001fa:	491e      	ldr	r1, [pc, #120]	; (8000274 <reset_handler+0x80>)
 80001fc:	428b      	cmp	r3, r1
 80001fe:	d320      	bcc.n	8000242 <reset_handler+0x4e>
 8000200:	4a1d      	ldr	r2, [pc, #116]	; (8000278 <reset_handler+0x84>)
 8000202:	2100      	movs	r1, #0
 8000204:	4293      	cmp	r3, r2
 8000206:	d321      	bcc.n	800024c <reset_handler+0x58>
 8000208:	f04f 23e0 	mov.w	r3, #3758153728	; 0xe000e000
 800020c:	4c1b      	ldr	r4, [pc, #108]	; (800027c <reset_handler+0x88>)
 800020e:	4d1c      	ldr	r5, [pc, #112]	; (8000280 <reset_handler+0x8c>)
 8000210:	f8d3 2d14 	ldr.w	r2, [r3, #3348]	; 0xd14
 8000214:	f442 7200 	orr.w	r2, r2, #512	; 0x200
 8000218:	f8c3 2d14 	str.w	r2, [r3, #3348]	; 0xd14
 800021c:	f8d3 2d88 	ldr.w	r2, [r3, #3464]	; 0xd88
 8000220:	f442 0270 	orr.w	r2, r2, #15728640	; 0xf00000
 8000224:	f8c3 2d88 	str.w	r2, [r3, #3464]	; 0xd88
 8000228:	42ac      	cmp	r4, r5
 800022a:	d312      	bcc.n	8000252 <reset_handler+0x5e>
 800022c:	4c15      	ldr	r4, [pc, #84]	; (8000284 <reset_handler+0x90>)
 800022e:	4d16      	ldr	r5, [pc, #88]	; (8000288 <reset_handler+0x94>)
 8000230:	42ac      	cmp	r4, r5
 8000232:	d312      	bcc.n	800025a <reset_handler+0x66>
 8000234:	4c15      	ldr	r4, [pc, #84]	; (800028c <reset_handler+0x98>)
 8000236:	f7ff ffd3 	bl	80001e0 <main>
 800023a:	4d15      	ldr	r5, [pc, #84]	; (8000290 <reset_handler+0x9c>)
 800023c:	42ac      	cmp	r4, r5
 800023e:	d310      	bcc.n	8000262 <reset_handler+0x6e>
 8000240:	bd38      	pop	{r3, r4, r5, pc}
 8000242:	f852 0b04 	ldr.w	r0, [r2], #4
 8000246:	f843 0b04 	str.w	r0, [r3], #4
 800024a:	e7d7      	b.n	80001fc <reset_handler+0x8>
 800024c:	f843 1b04 	str.w	r1, [r3], #4
 8000250:	e7d8      	b.n	8000204 <reset_handler+0x10>
 8000252:	f854 3b04 	ldr.w	r3, [r4], #4
 8000256:	4798      	blx	r3
 8000258:	e7e6      	b.n	8000228 <reset_handler+0x34>
 800025a:	f854 3b04 	ldr.w	r3, [r4], #4
 800025e:	4798      	blx	r3
 8000260:	e7e6      	b.n	8000230 <reset_handler+0x3c>
 8000262:	f854 3b04 	ldr.w	r3, [r4], #4
 8000266:	4798      	blx	r3
 8000268:	e7e8      	b.n	800023c <reset_handler+0x48>
 800026a:	bf00      	nop
 800026c:	08000294 	stmdaeq	r0, {r2, r4, r7, r9}
 8000270:	20000000 	andcs	r0, r0, r0
 8000274:	20000000 	andcs	r0, r0, r0
 8000278:	20000000 	andcs	r0, r0, r0
 800027c:	08000294 	stmdaeq	r0, {r2, r4, r7, r9}
 8000280:	08000294 	stmdaeq	r0, {r2, r4, r7, r9}
 8000284:	08000294 	stmdaeq	r0, {r2, r4, r7, r9}
 8000288:	08000294 	stmdaeq	r0, {r2, r4, r7, r9}
 800028c:	08000294 	stmdaeq	r0, {r2, r4, r7, r9}
 8000290:	08000294 	stmdaeq	r0, {r2, r4, r7, r9}
